
bin/main.elf:     file format elf32-littlearm

Sections:
Idx Name          Size      VMA       LMA       File off  Algn
  0 .text         00000ec4  00000000  00000000  00008000  2**2
                  CONTENTS, ALLOC, LOAD, READONLY, CODE
  1 .text.arm_Init 00000134  00000ec4  00000ec4  00008ec4  2**2
                  CONTENTS, ALLOC, LOAD, READONLY, CODE
  2 .text._start  00000048  00000ff8  00000ff8  00008ff8  2**2
                  CONTENTS, ALLOC, LOAD, READONLY, CODE
  3 .text.eeprom_ISR 00000020  00001040  00001040  00009040  2**2
                  CONTENTS, ALLOC, LOAD, READONLY, CODE
  4 .text.pwm0_ISR 00000020  00001060  00001060  00009060  2**2
                  CONTENTS, ALLOC, LOAD, READONLY, CODE
  5 .text.gpio_ISR 00000020  00001080  00001080  00009080  2**2
                  CONTENTS, ALLOC, LOAD, READONLY, CODE
  6 .text.lcd_ISR 00000020  000010a0  000010a0  000090a0  2**2
                  CONTENTS, ALLOC, LOAD, READONLY, CODE
  7 .text.ssp2_ISR 00000020  000010c0  000010c0  000090c0  2**2
                  CONTENTS, ALLOC, LOAD, READONLY, CODE
  8 .text.uart4_ISR 00000020  000010e0  000010e0  000090e0  2**2
                  CONTENTS, ALLOC, LOAD, READONLY, CODE
  9 .text.canAct_ISR 00000020  00001100  00001100  00009100  2**2
                  CONTENTS, ALLOC, LOAD, READONLY, CODE
 10 .text.usbAct_ISR 00000020  00001120  00001120  00009120  2**2
                  CONTENTS, ALLOC, LOAD, READONLY, CODE
 11 .text.pll1_ISR 00000020  00001140  00001140  00009140  2**2
                  CONTENTS, ALLOC, LOAD, READONLY, CODE
 12 .text.qei_ISR 00000020  00001160  00001160  00009160  2**2
                  CONTENTS, ALLOC, LOAD, READONLY, CODE
 13 .text.mcpwm_ISR 00000020  00001180  00001180  00009180  2**2
                  CONTENTS, ALLOC, LOAD, READONLY, CODE
 14 .text.rit_ISR 00000020  000011a0  000011a0  000091a0  2**2
                  CONTENTS, ALLOC, LOAD, READONLY, CODE
 15 .text.enet_ISR 00000020  000011c0  000011c0  000091c0  2**2
                  CONTENTS, ALLOC, LOAD, READONLY, CODE
 16 .text.i2s_ISR 00000020  000011e0  000011e0  000091e0  2**2
                  CONTENTS, ALLOC, LOAD, READONLY, CODE
 17 .text.dma_ISR 00000020  00001200  00001200  00009200  2**2
                  CONTENTS, ALLOC, LOAD, READONLY, CODE
 18 .text.can_ISR 00000020  00001220  00001220  00009220  2**2
                  CONTENTS, ALLOC, LOAD, READONLY, CODE
 19 .text.usbHost_ISR 00000020  00001240  00001240  00009240  2**2
                  CONTENTS, ALLOC, LOAD, READONLY, CODE
 20 .text.bod_ISR 00000020  00001260  00001260  00009260  2**2
                  CONTENTS, ALLOC, LOAD, READONLY, CODE
 21 .text.adc_ISR 00000020  00001280  00001280  00009280  2**2
                  CONTENTS, ALLOC, LOAD, READONLY, CODE
 22 .text.eint3_ISR 00000020  000012a0  000012a0  000092a0  2**2
                  CONTENTS, ALLOC, LOAD, READONLY, CODE
 23 .text.eint2_ISR 00000020  000012c0  000012c0  000092c0  2**2
                  CONTENTS, ALLOC, LOAD, READONLY, CODE
 24 .text.eint1_ISR 00000020  000012e0  000012e0  000092e0  2**2
                  CONTENTS, ALLOC, LOAD, READONLY, CODE
 25 .text.eint0_ISR 00000020  00001300  00001300  00009300  2**2
                  CONTENTS, ALLOC, LOAD, READONLY, CODE
 26 .text.rtc_ISR 00000020  00001320  00001320  00009320  2**2
                  CONTENTS, ALLOC, LOAD, READONLY, CODE
 27 .text.pll0_ISR 00000020  00001340  00001340  00009340  2**2
                  CONTENTS, ALLOC, LOAD, READONLY, CODE
 28 .text.ssp1_ISR 00000020  00001360  00001360  00009360  2**2
                  CONTENTS, ALLOC, LOAD, READONLY, CODE
 29 .text.ssp0_ISR 00000020  00001380  00001380  00009380  2**2
                  CONTENTS, ALLOC, LOAD, READONLY, CODE
 30 .text.spi_ISR 00000020  000013a0  000013a0  000093a0  2**2
                  CONTENTS, ALLOC, LOAD, READONLY, CODE
 31 .text.i2c2_ISR 00000020  000013c0  000013c0  000093c0  2**2
                  CONTENTS, ALLOC, LOAD, READONLY, CODE
 32 .text.i2c1_ISR 00000020  000013e0  000013e0  000093e0  2**2
                  CONTENTS, ALLOC, LOAD, READONLY, CODE
 33 .text.i2c0_ISR 00000020  00001400  00001400  00009400  2**2
                  CONTENTS, ALLOC, LOAD, READONLY, CODE
 34 .text.pwm_ISR 00000020  00001420  00001420  00009420  2**2
                  CONTENTS, ALLOC, LOAD, READONLY, CODE
 35 .text.uart2_ISR 00000020  00001440  00001440  00009440  2**2
                  CONTENTS, ALLOC, LOAD, READONLY, CODE
 36 .text.timer3_ISR 00000020  00001460  00001460  00009460  2**2
                  CONTENTS, ALLOC, LOAD, READONLY, CODE
 37 .text.timer2_ISR 00000020  00001480  00001480  00009480  2**2
                  CONTENTS, ALLOC, LOAD, READONLY, CODE
 38 .text.timer1_ISR 00000020  000014a0  000014a0  000094a0  2**2
                  CONTENTS, ALLOC, LOAD, READONLY, CODE
 39 .text.timer0_ISR 00000020  000014c0  000014c0  000094c0  2**2
                  CONTENTS, ALLOC, LOAD, READONLY, CODE
 40 .text.wdt_ISR 00000020  000014e0  000014e0  000094e0  2**2
                  CONTENTS, ALLOC, LOAD, READONLY, CODE
 41 .text.pendSV_ISR 00000020  00001500  00001500  00009500  2**2
                  CONTENTS, ALLOC, LOAD, READONLY, CODE
 42 .text.debugMon_ISR 00000020  00001520  00001520  00009520  2**2
                  CONTENTS, ALLOC, LOAD, READONLY, CODE
 43 .text.svc_ISR 00000020  00001540  00001540  00009540  2**2
                  CONTENTS, ALLOC, LOAD, READONLY, CODE
 44 .text.usageFault_ISR 00000020  00001560  00001560  00009560  2**2
                  CONTENTS, ALLOC, LOAD, READONLY, CODE
 45 .text.busFault_ISR 00000020  00001580  00001580  00009580  2**2
                  CONTENTS, ALLOC, LOAD, READONLY, CODE
 46 .text.memManage_ISR 00000020  000015a0  000015a0  000095a0  2**2
                  CONTENTS, ALLOC, LOAD, READONLY, CODE
 47 .text.hardFault_ISR 00000050  000015c0  000015c0  000095c0  2**2
                  CONTENTS, ALLOC, LOAD, READONLY, CODE
 48 .text.nmi_ISR 00000020  00001610  00001610  00009610  2**2
                  CONTENTS, ALLOC, LOAD, READONLY, CODE
 49 .text.nvic_enableIRQ 0000001a  00001630  00001630  00009630  2**1
                  CONTENTS, ALLOC, LOAD, READONLY, CODE
 50 .text.nvic_clearPendingIRQ 00000018  0000164c  0000164c  0000964c  2**2
                  CONTENTS, ALLOC, LOAD, READONLY, CODE
 51 .text.nvic_setPriority 00000034  00001664  00001664  00009664  2**2
                  CONTENTS, ALLOC, LOAD, READONLY, CODE
 52 .text.nvic_SetIntHandler 0000000c  00001698  00001698  00009698  2**2
                  CONTENTS, ALLOC, LOAD, READONLY, CODE
 53 .text.systime_Init 00000058  000016a4  000016a4  000096a4  2**2
                  CONTENTS, ALLOC, LOAD, READONLY, CODE
 54 .text.systime_SetIntHandler 00000018  000016fc  000016fc  000096fc  2**2
                  CONTENTS, ALLOC, LOAD, READONLY, CODE
 55 .text.sysTick_ISR 00000064  00001714  00001714  00009714  2**2
                  CONTENTS, ALLOC, LOAD, READONLY, CODE
 56 .text.delay   00000008  00001778  00001778  00009778  2**1
                  CONTENTS, ALLOC, LOAD, READONLY, CODE
 57 .text.uart1_Init 000000d0  00001780  00001780  00009780  2**2
                  CONTENTS, ALLOC, LOAD, READONLY, CODE
 58 .text.uart1_GetChar 00000048  00001850  00001850  00009850  2**2
                  CONTENTS, ALLOC, LOAD, READONLY, CODE
 59 .text.uart1_ClearBufferRx 0000003c  00001898  00001898  00009898  2**2
                  CONTENTS, ALLOC, LOAD, READONLY, CODE
 60 .text.uart1_PutChar 00000068  000018d4  000018d4  000098d4  2**2
                  CONTENTS, ALLOC, LOAD, READONLY, CODE
 61 .text.uart1_SpaceTx 0000002c  0000193c  0000193c  0000993c  2**2
                  CONTENTS, ALLOC, LOAD, READONLY, CODE
 62 .text.uart1_EmptyTx 00000018  00001968  00001968  00009968  2**2
                  CONTENTS, ALLOC, LOAD, READONLY, CODE
 63 .text.uart1_WriteTx 0000002c  00001980  00001980  00009980  2**1
                  CONTENTS, ALLOC, LOAD, READONLY, CODE
 64 .text.uart1_ISR 000000b4  000019ac  000019ac  000099ac  2**2
                  CONTENTS, ALLOC, LOAD, READONLY, CODE
 65 .text.uart3_SetBaudrate 00000028  00001a60  00001a60  00009a60  2**2
                  CONTENTS, ALLOC, LOAD, READONLY, CODE
 66 .text.uart3_Init 000000ac  00001a88  00001a88  00009a88  2**2
                  CONTENTS, ALLOC, LOAD, READONLY, CODE
 67 .text.uart3_GetChar 00000048  00001b34  00001b34  00009b34  2**2
                  CONTENTS, ALLOC, LOAD, READONLY, CODE
 68 .text.uart3_ClearBufferRx 0000003c  00001b7c  00001b7c  00009b7c  2**2
                  CONTENTS, ALLOC, LOAD, READONLY, CODE
 69 .text.uart3_BufferQtdRx 0000000c  00001bb8  00001bb8  00009bb8  2**2
                  CONTENTS, ALLOC, LOAD, READONLY, CODE
 70 .text.uart3_PutChar 00000068  00001bc4  00001bc4  00009bc4  2**2
                  CONTENTS, ALLOC, LOAD, READONLY, CODE
 71 .text.uart3_SpaceTx 0000002c  00001c2c  00001c2c  00009c2c  2**2
                  CONTENTS, ALLOC, LOAD, READONLY, CODE
 72 .text.uart3_EmptyTx 00000018  00001c58  00001c58  00009c58  2**2
                  CONTENTS, ALLOC, LOAD, READONLY, CODE
 73 .text.uart3_WriteTx 0000002c  00001c70  00001c70  00009c70  2**1
                  CONTENTS, ALLOC, LOAD, READONLY, CODE
 74 .text.uart3_ISR 000000ac  00001c9c  00001c9c  00009c9c  2**2
                  CONTENTS, ALLOC, LOAD, READONLY, CODE
 75 .text.uart0_Init 000000c8  00001d48  00001d48  00009d48  2**2
                  CONTENTS, ALLOC, LOAD, READONLY, CODE
 76 .text.uart0_GetChar 00000048  00001e10  00001e10  00009e10  2**2
                  CONTENTS, ALLOC, LOAD, READONLY, CODE
 77 .text.uart0_PutChar 00000068  00001e58  00001e58  00009e58  2**2
                  CONTENTS, ALLOC, LOAD, READONLY, CODE
 78 .text.uart0_BasicPutChar 0000001c  00001ec0  00001ec0  00009ec0  2**2
                  CONTENTS, ALLOC, LOAD, READONLY, CODE
 79 .text.uart0_ISR 000000ac  00001edc  00001edc  00009edc  2**2
                  CONTENTS, ALLOC, LOAD, READONLY, CODE
 80 .text.showVicError 00000074  00001f88  00001f88  00009f88  2**2
                  CONTENTS, ALLOC, LOAD, READONLY, CODE
 81 .text.startup.main 000000e4  00001ffc  00001ffc  00009ffc  2**2
                  CONTENTS, ALLOC, LOAD, READONLY, CODE
 82 .text.app_SetOut 0000000c  000020e0  000020e0  0000a0e0  2**2
                  CONTENTS, ALLOC, LOAD, READONLY, CODE
 83 .text.app_SetRelay 0000009c  000020ec  000020ec  0000a0ec  2**2
                  CONTENTS, ALLOC, LOAD, READONLY, CODE
 84 .text.app_Init 00000058  00002188  00002188  0000a188  2**2
                  CONTENTS, ALLOC, LOAD, READONLY, CODE
 85 .text.app_Tick 00000020  000021e0  000021e0  0000a1e0  2**2
                  CONTENTS, ALLOC, LOAD, READONLY, CODE
 86 .text.master_PutString 0000002c  00002200  00002200  0000a200  2**2
                  CONTENTS, ALLOC, LOAD, READONLY, CODE
 87 .text.slave_PutString 00000028  0000222c  0000222c  0000a22c  2**2
                  CONTENTS, ALLOC, LOAD, READONLY, CODE
 88 .text.slave_ReadRegisters 000000cc  00002254  00002254  0000a254  2**2
                  CONTENTS, ALLOC, LOAD, READONLY, CODE
 89 .text.slave_SetValue 0000003c  00002320  00002320  0000a320  2**2
                  CONTENTS, ALLOC, LOAD, READONLY, CODE
 90 .text.slave_WriteRegister 00000022  0000235c  0000235c  0000a35c  2**1
                  CONTENTS, ALLOC, LOAD, READONLY, CODE
 91 .text.slave_WriteRegisters 00000040  0000237e  0000237e  0000a37e  2**1
                  CONTENTS, ALLOC, LOAD, READONLY, CODE
 92 .text.modbus_Init 00000090  000023c0  000023c0  0000a3c0  2**2
                  CONTENTS, ALLOC, LOAD, READONLY, CODE
 93 .text.modbus_SendCommand 00000034  00002450  00002450  0000a450  2**2
                  CONTENTS, ALLOC, LOAD, READONLY, CODE
 94 .text.modbus_Process 000000f0  00002484  00002484  0000a484  2**2
                  CONTENTS, ALLOC, LOAD, READONLY, CODE
 95 .text.prompt_STS 000000c8  00002574  00002574  0000a574  2**2
                  CONTENTS, ALLOC, LOAD, READONLY, CODE
 96 .text.prompt_Relay 00000074  0000263c  0000263c  0000a63c  2**2
                  CONTENTS, ALLOC, LOAD, READONLY, CODE
 97 .text.prompt_Process 00000098  000026b0  000026b0  0000a6b0  2**2
                  CONTENTS, ALLOC, LOAD, READONLY, CODE
 98 .text.print_putchar 00000074  00002748  00002748  0000a748  2**2
                  CONTENTS, ALLOC, LOAD, READONLY, CODE
 99 .text.print_fill 0000001a  000027bc  000027bc  0000a7bc  2**1
                  CONTENTS, ALLOC, LOAD, READONLY, CODE
100 .text.print_int 0000005c  000027d6  000027d6  0000a7d6  2**1
                  CONTENTS, ALLOC, LOAD, READONLY, CODE
101 .text.print_long 0000004a  00002832  00002832  0000a832  2**1
                  CONTENTS, ALLOC, LOAD, READONLY, CODE
102 .text.print_float 000000b4  0000287c  0000287c  0000a87c  2**2
                  CONTENTS, ALLOC, LOAD, READONLY, CODE
103 .text.doprint 0000035c  00002930  00002930  0000a930  2**2
                  CONTENTS, ALLOC, LOAD, READONLY, CODE
104 .text.lputchar_RegisterDev 0000000c  00002c8c  00002c8c  0000ac8c  2**2
                  CONTENTS, ALLOC, LOAD, READONLY, CODE
105 .text.ldebug_RegisterDev 0000000c  00002c98  00002c98  0000ac98  2**2
                  CONTENTS, ALLOC, LOAD, READONLY, CODE
106 .text.lgetchar_RegisterDev 0000000c  00002ca4  00002ca4  0000aca4  2**2
                  CONTENTS, ALLOC, LOAD, READONLY, CODE
107 .text.lgetchar 00000010  00002cb0  00002cb0  0000acb0  2**2
                  CONTENTS, ALLOC, LOAD, READONLY, CODE
108 .text.rprintf 0000002a  00002cc0  00002cc0  0000acc0  2**1
                  CONTENTS, ALLOC, LOAD, READONLY, CODE
109 .text.buffer_Init 0000000c  00002cea  00002cea  0000acea  2**1
                  CONTENTS, ALLOC, LOAD, READONLY, CODE
110 .text.buffer_GetFromFront 00000044  00002cf6  00002cf6  0000acf6  2**1
                  CONTENTS, ALLOC, LOAD, READONLY, CODE
111 .text.buffer_AddToEnd 0000003a  00002d3a  00002d3a  0000ad3a  2**1
                  CONTENTS, ALLOC, LOAD, READONLY, CODE
112 .text.buffer_IsEmpty 0000000e  00002d74  00002d74  0000ad74  2**1
                  CONTENTS, ALLOC, LOAD, READONLY, CODE
113 .text.buffer_Clear 00000006  00002d82  00002d82  0000ad82  2**1
                  CONTENTS, ALLOC, LOAD, READONLY, CODE
114 .text.xatoi   000000a8  00002d88  00002d88  0000ad88  2**1
                  CONTENTS, ALLOC, LOAD, READONLY, CODE
115 .text.crc16_Right 00000046  00002e30  00002e30  0000ae30  2**1
                  CONTENTS, ALLOC, LOAD, READONLY, CODE
116 .text.crc16_MODBUS 0000000c  00002e76  00002e76  0000ae76  2**1
                  CONTENTS, ALLOC, LOAD, READONLY, CODE
117 .text.ValidatePacket 00000044  00002e84  00002e84  0000ae84  2**2
                  CONTENTS, ALLOC, LOAD, READONLY, CODE
118 .text.modbus_MasterInit 00000034  00002ec8  00002ec8  0000aec8  2**2
                  CONTENTS, ALLOC, LOAD, READONLY, CODE
119 .text.modbus_MasterTimeout 0000000c  00002efc  00002efc  0000aefc  2**2
                  CONTENTS, ALLOC, LOAD, READONLY, CODE
120 .text.modbus_MasterReadStatus 0000000c  00002f08  00002f08  0000af08  2**2
                  CONTENTS, ALLOC, LOAD, READONLY, CODE
121 .text.modbus_MasterReadException 0000000c  00002f14  00002f14  0000af14  2**2
                  CONTENTS, ALLOC, LOAD, READONLY, CODE
122 .text.modbus_MasterReadRegisters 0000007c  00002f20  00002f20  0000af20  2**2
                  CONTENTS, ALLOC, LOAD, READONLY, CODE
123 .text.modbus_MasterProcess 00000198  00002f9c  00002f9c  0000af9c  2**2
                  CONTENTS, ALLOC, LOAD, READONLY, CODE
124 .text.modbus_MasterTick 0000002c  00003134  00003134  0000b134  2**2
                  CONTENTS, ALLOC, LOAD, READONLY, CODE
125 .text.modbus_SendPacketException 00000034  00003160  00003160  0000b160  2**2
                  CONTENTS, ALLOC, LOAD, READONLY, CODE
126 .text.modbus_SlaveInit 00000028  00003194  00003194  0000b194  2**2
                  CONTENTS, ALLOC, LOAD, READONLY, CODE
127 .text.modbus_SlaveAppendFunctions 00000014  000031bc  000031bc  0000b1bc  2**2
                  CONTENTS, ALLOC, LOAD, READONLY, CODE
128 .text.modbus_SlaveProcess 00000168  000031d0  000031d0  0000b1d0  2**2
                  CONTENTS, ALLOC, LOAD, READONLY, CODE
129 .text.modbus_SlaveTick 00000014  00003338  00003338  0000b338  2**2
                  CONTENTS, ALLOC, LOAD, READONLY, CODE
130 .text.cli_GetLine 000000f0  0000334c  0000334c  0000b34c  2**2
                  CONTENTS, ALLOC, LOAD, READONLY, CODE
131 .text.cli_Help 000000a0  0000343c  0000343c  0000b43c  2**2
                  CONTENTS, ALLOC, LOAD, READONLY, CODE
132 .text.cli_ArgsParse 000000ec  000034dc  000034dc  0000b4dc  2**2
                  CONTENTS, ALLOC, LOAD, READONLY, CODE
133 .text.cli_ArgsDispatch 00000094  000035c8  000035c8  0000b5c8  2**2
                  CONTENTS, ALLOC, LOAD, READONLY, CODE
134 .rodata       00000777  0000365c  0000365c  0000b65c  2**2
                  CONTENTS, ALLOC, LOAD, READONLY, DATA
135 .data         0000000d  10000000  00003dd4  00010000  2**2
                  CONTENTS, ALLOC, LOAD, DATA
136 .bss          00000150  10000010  00003de4  0001000d  2**2
                  ALLOC
137 .bss.vicerr_Functions 00000004  10000160  00003f34  0001000d  2**2
                  ALLOC
138 .bss.countTicksLed 00000004  10000164  00003f38  0001000d  2**2
                  ALLOC
139 .bss.countTicks_ms 00000004  10000168  00003f3c  0001000d  2**2
                  ALLOC
140 .bss.callfuncTime 00000004  1000016c  00003f40  0001000d  2**2
                  ALLOC
141 .bss.systime_IntFunctions 00000004  10000170  00003f44  0001000d  2**2
                  ALLOC
142 .bss.u1_tx_running 00000001  10000174  00003f48  0001000d  2**0
                  ALLOC
143 .bss.u1_overflow_rx 00000002  10000176  00003f4a  0001000d  2**1
                  ALLOC
144 .bss.u1_data_rx 0000012c  10000178  00003f4c  0001000d  2**0
                  ALLOC
145 .bss.u1_buf_rx 0000000c  100002a4  00004078  0001000d  2**2
                  ALLOC
146 .bss.u1_data_tx 0000012c  100002b0  00004084  0001000d  2**0
                  ALLOC
147 .bss.u1_buf_tx 0000000c  100003dc  000041b0  0001000d  2**2
                  ALLOC
148 .bss.u3_buf_tx 0000000c  100003e8  000041bc  0001000d  2**2
                  ALLOC
149 .bss.u3_tx_running 00000001  100003f4  000041c8  0001000d  2**0
                  ALLOC
150 .bss.u3_data_rx 0000012c  100003f5  000041c9  0001000d  2**0
                  ALLOC
151 .bss.u3_data_tx 0000012c  10000521  000042f5  0001000d  2**0
                  ALLOC
152 .bss.u3_overflow_rx 00000002  1000064e  00004422  0001000d  2**1
                  ALLOC
153 .bss.u3_buf_rx 0000000c  10000650  00004424  0001000d  2**2
                  ALLOC
154 .bss.u0_data_tx 0000012c  1000065c  00004430  0001000d  2**0
                  ALLOC
155 .bss.u0_tx_running 00000001  10000788  0000455c  0001000d  2**0
                  ALLOC
156 .bss.u0_overflow_rx 00000002  1000078a  0000455e  0001000d  2**1
                  ALLOC
157 .bss.u0_buf_rx 0000000c  1000078c  00004560  0001000d  2**2
                  ALLOC
158 .bss.u0_buf_tx 0000000c  10000798  0000456c  0001000d  2**2
                  ALLOC
159 .bss.u0_data_rx 0000012c  100007a4  00004578  0001000d  2**0
                  ALLOC
160 .bss.x.5077   00000004  100008d0  000046a4  0001000d  2**2
                  ALLOC
161 .bss.cmd      00000001  100008d4  000046a8  0001000d  2**0
                  ALLOC
162 .bss.waitResponse 00000004  100008d8  000046ac  0001000d  2**2
                  ALLOC
163 .bss.regs     000000f0  100008dc  000046b0  0001000d  2**1
                  ALLOC
164 .bss.argc_prompt 00000004  100009cc  000047a0  0001000d  2**2
                  ALLOC
165 .bss.result_prompt 00000004  100009d0  000047a4  0001000d  2**2
                  ALLOC
166 .bss.argv_prompt 00000028  100009d4  000047a8  0001000d  2**2
                  ALLOC
167 .bss.buffer_prompt 00000028  100009fc  000047d0  0001000d  2**0
                  ALLOC
168 .bss.resuslt.5450 00000004  10000a24  000047f8  0001000d  2**2
                  ALLOC
169 .bss.dev1_putc 00000004  10000a28  000047fc  0001000d  2**2
                  ALLOC
170 .bss.stdio_putc 00000004  10000a2c  00004800  0001000d  2**2
                  ALLOC
171 .bss.dev4_putc 00000004  10000a30  00004804  0001000d  2**2
                  ALLOC
172 .bss.putcharfunc.4582 00000004  10000a34  00004808  0001000d  2**2
                  ALLOC
173 .bss.dev3_putc 00000004  10000a38  0000480c  0001000d  2**2
                  ALLOC
174 .bss.dev2_putc 00000004  10000a3c  00004810  0001000d  2**2
                  ALLOC
175 .bss.stdio_getc 00000004  10000a40  00004814  0001000d  2**2
                  ALLOC
176 .bss.debug_putc 00000004  10000a44  00004818  0001000d  2**2
                  ALLOC
177 .bss.err_putc 00000004  10000a48  0000481c  0001000d  2**2
                  ALLOC
178 .bss.len.4213 00000004  10000a4c  00004820  0001000d  2**2
                  ALLOC
179 .bss.modbus   00000268  10000a50  00004824  0001000d  2**2
                  ALLOC
180 .bss.cmd_list_active 00000004  10000cb8  00004a8c  0001000d  2**2
                  ALLOC
181 .bss.p        00000004  10000cbc  00004a90  0001000d  2**2
                  ALLOC
182 .bss.c        00000001  10000cc0  00004a94  0001000d  2**0
                  ALLOC
183 .comment      00000011  00000000  00000000  0001000d  2**0
                  CONTENTS, READONLY
184 .ARM.attributes 00000033  00000000  00000000  0001001e  2**0
                  CONTENTS, READONLY
185 .debug_aranges 000008a8  00000000  00000000  00010058  2**3
                  CONTENTS, READONLY, DEBUGGING
186 .debug_info   00007363  00000000  00000000  00010900  2**0
                  CONTENTS, READONLY, DEBUGGING
187 .debug_abbrev 000026f8  00000000  00000000  00017c63  2**0
                  CONTENTS, READONLY, DEBUGGING
188 .debug_line   00002d0a  00000000  00000000  0001a35b  2**0
                  CONTENTS, READONLY, DEBUGGING
189 .debug_frame  00001504  00000000  00000000  0001d068  2**2
                  CONTENTS, READONLY, DEBUGGING
190 .debug_str    000017cd  00000000  00000000  0001e56c  2**0
                  CONTENTS, READONLY, DEBUGGING
191 .debug_loc    00003edb  00000000  00000000  0001fd39  2**0
                  CONTENTS, READONLY, DEBUGGING
192 .debug_ranges 00000918  00000000  00000000  00023c14  2**0
                  CONTENTS, READONLY, DEBUGGING

Disassembly of section .text:

00000000 <gVectors>:
   0:	00 40 00 10 f9 0f 00 00 11 16 00 00 c1 15 00 00     .@..............
  10:	a1 15 00 00 81 15 00 00 61 15 00 00 00 00 00 00     ........a.......
	...
  2c:	41 15 00 00 21 15 00 00 00 00 00 00 01 15 00 00     A...!...........
  3c:	15 17 00 00 e1 14 00 00 c1 14 00 00 a1 14 00 00     ................
  4c:	81 14 00 00 61 14 00 00 dd 1e 00 00 ad 19 00 00     ....a...........
  5c:	41 14 00 00 9d 1c 00 00 21 14 00 00 01 14 00 00     A.......!.......
  6c:	e1 13 00 00 c1 13 00 00 a1 13 00 00 81 13 00 00     ................
  7c:	61 13 00 00 41 13 00 00 21 13 00 00 01 13 00 00     a...A...!.......
  8c:	e1 12 00 00 c1 12 00 00 a1 12 00 00 81 12 00 00     ................
  9c:	61 12 00 00 41 12 00 00 21 12 00 00 01 12 00 00     a...A...!.......
  ac:	e1 11 00 00 c1 11 00 00 a1 11 00 00 81 11 00 00     ................
  bc:	61 11 00 00 41 11 00 00 21 11 00 00 01 11 00 00     a...A...!.......
  cc:	e1 10 00 00 c1 10 00 00 a1 10 00 00 81 10 00 00     ................
  dc:	61 10 00 00 41 10 00 00 00 00 00 00 00 00 00 00     a...A...........
	...

000002fc <__aeabi_drsub>:
 2fc:	f081 4100 	eor.w	r1, r1, #2147483648	; 0x80000000
 300:	e002      	b.n	308 <__adddf3>
 302:	bf00      	nop

00000304 <__aeabi_dsub>:
 304:	f083 4300 	eor.w	r3, r3, #2147483648	; 0x80000000

00000308 <__adddf3>:
 308:	b530      	push	{r4, r5, lr}
 30a:	ea4f 0441 	mov.w	r4, r1, lsl #1
 30e:	ea4f 0543 	mov.w	r5, r3, lsl #1
 312:	ea94 0f05 	teq	r4, r5
 316:	bf08      	it	eq
 318:	ea90 0f02 	teqeq	r0, r2
 31c:	bf1f      	itttt	ne
 31e:	ea54 0c00 	orrsne.w	ip, r4, r0
 322:	ea55 0c02 	orrsne.w	ip, r5, r2
 326:	ea7f 5c64 	mvnsne.w	ip, r4, asr #21
 32a:	ea7f 5c65 	mvnsne.w	ip, r5, asr #21
 32e:	f000 80e2 	beq.w	4f6 <__adddf3+0x1ee>
 332:	ea4f 5454 	mov.w	r4, r4, lsr #21
 336:	ebd4 5555 	rsbs	r5, r4, r5, lsr #21
 33a:	bfb8      	it	lt
 33c:	426d      	neglt	r5, r5
 33e:	dd0c      	ble.n	35a <__adddf3+0x52>
 340:	442c      	add	r4, r5
 342:	ea80 0202 	eor.w	r2, r0, r2
 346:	ea81 0303 	eor.w	r3, r1, r3
 34a:	ea82 0000 	eor.w	r0, r2, r0
 34e:	ea83 0101 	eor.w	r1, r3, r1
 352:	ea80 0202 	eor.w	r2, r0, r2
 356:	ea81 0303 	eor.w	r3, r1, r3
 35a:	2d36      	cmp	r5, #54	; 0x36
 35c:	bf88      	it	hi
 35e:	bd30      	pophi	{r4, r5, pc}
 360:	f011 4f00 	tst.w	r1, #2147483648	; 0x80000000
 364:	ea4f 3101 	mov.w	r1, r1, lsl #12
 368:	f44f 1c80 	mov.w	ip, #1048576	; 0x100000
 36c:	ea4c 3111 	orr.w	r1, ip, r1, lsr #12
 370:	d002      	beq.n	378 <__adddf3+0x70>
 372:	4240      	negs	r0, r0
 374:	eb61 0141 	sbc.w	r1, r1, r1, lsl #1
 378:	f013 4f00 	tst.w	r3, #2147483648	; 0x80000000
 37c:	ea4f 3303 	mov.w	r3, r3, lsl #12
 380:	ea4c 3313 	orr.w	r3, ip, r3, lsr #12
 384:	d002      	beq.n	38c <__adddf3+0x84>
 386:	4252      	negs	r2, r2
 388:	eb63 0343 	sbc.w	r3, r3, r3, lsl #1
 38c:	ea94 0f05 	teq	r4, r5
 390:	f000 80a7 	beq.w	4e2 <__adddf3+0x1da>
 394:	f1a4 0401 	sub.w	r4, r4, #1
 398:	f1d5 0e20 	rsbs	lr, r5, #32
 39c:	db0d      	blt.n	3ba <__adddf3+0xb2>
 39e:	fa02 fc0e 	lsl.w	ip, r2, lr
 3a2:	fa22 f205 	lsr.w	r2, r2, r5
 3a6:	1880      	adds	r0, r0, r2
 3a8:	f141 0100 	adc.w	r1, r1, #0
 3ac:	fa03 f20e 	lsl.w	r2, r3, lr
 3b0:	1880      	adds	r0, r0, r2
 3b2:	fa43 f305 	asr.w	r3, r3, r5
 3b6:	4159      	adcs	r1, r3
 3b8:	e00e      	b.n	3d8 <__adddf3+0xd0>
 3ba:	f1a5 0520 	sub.w	r5, r5, #32
 3be:	f10e 0e20 	add.w	lr, lr, #32
 3c2:	2a01      	cmp	r2, #1
 3c4:	fa03 fc0e 	lsl.w	ip, r3, lr
 3c8:	bf28      	it	cs
 3ca:	f04c 0c02 	orrcs.w	ip, ip, #2
 3ce:	fa43 f305 	asr.w	r3, r3, r5
 3d2:	18c0      	adds	r0, r0, r3
 3d4:	eb51 71e3 	adcs.w	r1, r1, r3, asr #31
 3d8:	f001 4500 	and.w	r5, r1, #2147483648	; 0x80000000
 3dc:	d507      	bpl.n	3ee <__adddf3+0xe6>
 3de:	f04f 0e00 	mov.w	lr, #0
 3e2:	f1dc 0c00 	rsbs	ip, ip, #0
 3e6:	eb7e 0000 	sbcs.w	r0, lr, r0
 3ea:	eb6e 0101 	sbc.w	r1, lr, r1
 3ee:	f5b1 1f80 	cmp.w	r1, #1048576	; 0x100000
 3f2:	d31b      	bcc.n	42c <__adddf3+0x124>
 3f4:	f5b1 1f00 	cmp.w	r1, #2097152	; 0x200000
 3f8:	d30c      	bcc.n	414 <__adddf3+0x10c>
 3fa:	0849      	lsrs	r1, r1, #1
 3fc:	ea5f 0030 	movs.w	r0, r0, rrx
 400:	ea4f 0c3c 	mov.w	ip, ip, rrx
 404:	f104 0401 	add.w	r4, r4, #1
 408:	ea4f 5244 	mov.w	r2, r4, lsl #21
 40c:	f512 0f80 	cmn.w	r2, #4194304	; 0x400000
 410:	f080 809a 	bcs.w	548 <__adddf3+0x240>
 414:	f1bc 4f00 	cmp.w	ip, #2147483648	; 0x80000000
 418:	bf08      	it	eq
 41a:	ea5f 0c50 	movseq.w	ip, r0, lsr #1
 41e:	f150 0000 	adcs.w	r0, r0, #0
 422:	eb41 5104 	adc.w	r1, r1, r4, lsl #20
 426:	ea41 0105 	orr.w	r1, r1, r5
 42a:	bd30      	pop	{r4, r5, pc}
 42c:	ea5f 0c4c 	movs.w	ip, ip, lsl #1
 430:	4140      	adcs	r0, r0
 432:	eb41 0101 	adc.w	r1, r1, r1
 436:	f411 1f80 	tst.w	r1, #1048576	; 0x100000
 43a:	f1a4 0401 	sub.w	r4, r4, #1
 43e:	d1e9      	bne.n	414 <__adddf3+0x10c>
 440:	f091 0f00 	teq	r1, #0
 444:	bf04      	itt	eq
 446:	4601      	moveq	r1, r0
 448:	2000      	moveq	r0, #0
 44a:	fab1 f381 	clz	r3, r1
 44e:	bf08      	it	eq
 450:	3320      	addeq	r3, #32
 452:	f1a3 030b 	sub.w	r3, r3, #11
 456:	f1b3 0220 	subs.w	r2, r3, #32
 45a:	da0c      	bge.n	476 <__adddf3+0x16e>
 45c:	320c      	adds	r2, #12
 45e:	dd08      	ble.n	472 <__adddf3+0x16a>
 460:	f102 0c14 	add.w	ip, r2, #20
 464:	f1c2 020c 	rsb	r2, r2, #12
 468:	fa01 f00c 	lsl.w	r0, r1, ip
 46c:	fa21 f102 	lsr.w	r1, r1, r2
 470:	e00c      	b.n	48c <__adddf3+0x184>
 472:	f102 0214 	add.w	r2, r2, #20
 476:	bfd8      	it	le
 478:	f1c2 0c20 	rsble	ip, r2, #32
 47c:	fa01 f102 	lsl.w	r1, r1, r2
 480:	fa20 fc0c 	lsr.w	ip, r0, ip
 484:	bfdc      	itt	le
 486:	ea41 010c 	orrle.w	r1, r1, ip
 48a:	4090      	lslle	r0, r2
 48c:	1ae4      	subs	r4, r4, r3
 48e:	bfa2      	ittt	ge
 490:	eb01 5104 	addge.w	r1, r1, r4, lsl #20
 494:	4329      	orrge	r1, r5
 496:	bd30      	popge	{r4, r5, pc}
 498:	ea6f 0404 	mvn.w	r4, r4
 49c:	3c1f      	subs	r4, #31
 49e:	da1c      	bge.n	4da <__adddf3+0x1d2>
 4a0:	340c      	adds	r4, #12
 4a2:	dc0e      	bgt.n	4c2 <__adddf3+0x1ba>
 4a4:	f104 0414 	add.w	r4, r4, #20
 4a8:	f1c4 0220 	rsb	r2, r4, #32
 4ac:	fa20 f004 	lsr.w	r0, r0, r4
 4b0:	fa01 f302 	lsl.w	r3, r1, r2
 4b4:	ea40 0003 	orr.w	r0, r0, r3
 4b8:	fa21 f304 	lsr.w	r3, r1, r4
 4bc:	ea45 0103 	orr.w	r1, r5, r3
 4c0:	bd30      	pop	{r4, r5, pc}
 4c2:	f1c4 040c 	rsb	r4, r4, #12
 4c6:	f1c4 0220 	rsb	r2, r4, #32
 4ca:	fa20 f002 	lsr.w	r0, r0, r2
 4ce:	fa01 f304 	lsl.w	r3, r1, r4
 4d2:	ea40 0003 	orr.w	r0, r0, r3
 4d6:	4629      	mov	r1, r5
 4d8:	bd30      	pop	{r4, r5, pc}
 4da:	fa21 f004 	lsr.w	r0, r1, r4
 4de:	4629      	mov	r1, r5
 4e0:	bd30      	pop	{r4, r5, pc}
 4e2:	f094 0f00 	teq	r4, #0
 4e6:	f483 1380 	eor.w	r3, r3, #1048576	; 0x100000
 4ea:	bf06      	itte	eq
 4ec:	f481 1180 	eoreq.w	r1, r1, #1048576	; 0x100000
 4f0:	3401      	addeq	r4, #1
 4f2:	3d01      	subne	r5, #1
 4f4:	e74e      	b.n	394 <__adddf3+0x8c>
 4f6:	ea7f 5c64 	mvns.w	ip, r4, asr #21
 4fa:	bf18      	it	ne
 4fc:	ea7f 5c65 	mvnsne.w	ip, r5, asr #21
 500:	d029      	beq.n	556 <__adddf3+0x24e>
 502:	ea94 0f05 	teq	r4, r5
 506:	bf08      	it	eq
 508:	ea90 0f02 	teqeq	r0, r2
 50c:	d005      	beq.n	51a <__adddf3+0x212>
 50e:	ea54 0c00 	orrs.w	ip, r4, r0
 512:	bf04      	itt	eq
 514:	4619      	moveq	r1, r3
 516:	4610      	moveq	r0, r2
 518:	bd30      	pop	{r4, r5, pc}
 51a:	ea91 0f03 	teq	r1, r3
 51e:	bf1e      	ittt	ne
 520:	2100      	movne	r1, #0
 522:	2000      	movne	r0, #0
 524:	bd30      	popne	{r4, r5, pc}
 526:	ea5f 5c54 	movs.w	ip, r4, lsr #21
 52a:	d105      	bne.n	538 <__adddf3+0x230>
 52c:	0040      	lsls	r0, r0, #1
 52e:	4149      	adcs	r1, r1
 530:	bf28      	it	cs
 532:	f041 4100 	orrcs.w	r1, r1, #2147483648	; 0x80000000
 536:	bd30      	pop	{r4, r5, pc}
 538:	f514 0480 	adds.w	r4, r4, #4194304	; 0x400000
 53c:	bf3c      	itt	cc
 53e:	f501 1180 	addcc.w	r1, r1, #1048576	; 0x100000
 542:	bd30      	popcc	{r4, r5, pc}
 544:	f001 4500 	and.w	r5, r1, #2147483648	; 0x80000000
 548:	f045 41fe 	orr.w	r1, r5, #2130706432	; 0x7f000000
 54c:	f441 0170 	orr.w	r1, r1, #15728640	; 0xf00000
 550:	f04f 0000 	mov.w	r0, #0
 554:	bd30      	pop	{r4, r5, pc}
 556:	ea7f 5c64 	mvns.w	ip, r4, asr #21
 55a:	bf1a      	itte	ne
 55c:	4619      	movne	r1, r3
 55e:	4610      	movne	r0, r2
 560:	ea7f 5c65 	mvnseq.w	ip, r5, asr #21
 564:	bf1c      	itt	ne
 566:	460b      	movne	r3, r1
 568:	4602      	movne	r2, r0
 56a:	ea50 3401 	orrs.w	r4, r0, r1, lsl #12
 56e:	bf06      	itte	eq
 570:	ea52 3503 	orrseq.w	r5, r2, r3, lsl #12
 574:	ea91 0f03 	teqeq	r1, r3
 578:	f441 2100 	orrne.w	r1, r1, #524288	; 0x80000
 57c:	bd30      	pop	{r4, r5, pc}
 57e:	bf00      	nop

00000580 <__aeabi_ui2d>:
 580:	f090 0f00 	teq	r0, #0
 584:	bf04      	itt	eq
 586:	2100      	moveq	r1, #0
 588:	4770      	bxeq	lr
 58a:	b530      	push	{r4, r5, lr}
 58c:	f44f 6480 	mov.w	r4, #1024	; 0x400
 590:	f104 0432 	add.w	r4, r4, #50	; 0x32
 594:	f04f 0500 	mov.w	r5, #0
 598:	f04f 0100 	mov.w	r1, #0
 59c:	e750      	b.n	440 <__adddf3+0x138>
 59e:	bf00      	nop

000005a0 <__aeabi_i2d>:
 5a0:	f090 0f00 	teq	r0, #0
 5a4:	bf04      	itt	eq
 5a6:	2100      	moveq	r1, #0
 5a8:	4770      	bxeq	lr
 5aa:	b530      	push	{r4, r5, lr}
 5ac:	f44f 6480 	mov.w	r4, #1024	; 0x400
 5b0:	f104 0432 	add.w	r4, r4, #50	; 0x32
 5b4:	f010 4500 	ands.w	r5, r0, #2147483648	; 0x80000000
 5b8:	bf48      	it	mi
 5ba:	4240      	negmi	r0, r0
 5bc:	f04f 0100 	mov.w	r1, #0
 5c0:	e73e      	b.n	440 <__adddf3+0x138>
 5c2:	bf00      	nop

000005c4 <__aeabi_f2d>:
 5c4:	0042      	lsls	r2, r0, #1
 5c6:	ea4f 01e2 	mov.w	r1, r2, asr #3
 5ca:	ea4f 0131 	mov.w	r1, r1, rrx
 5ce:	ea4f 7002 	mov.w	r0, r2, lsl #28
 5d2:	bf1f      	itttt	ne
 5d4:	f012 437f 	andsne.w	r3, r2, #4278190080	; 0xff000000
 5d8:	f093 4f7f 	teqne	r3, #4278190080	; 0xff000000
 5dc:	f081 5160 	eorne.w	r1, r1, #939524096	; 0x38000000
 5e0:	4770      	bxne	lr
 5e2:	f092 0f00 	teq	r2, #0
 5e6:	bf14      	ite	ne
 5e8:	f093 4f7f 	teqne	r3, #4278190080	; 0xff000000
 5ec:	4770      	bxeq	lr
 5ee:	b530      	push	{r4, r5, lr}
 5f0:	f44f 7460 	mov.w	r4, #896	; 0x380
 5f4:	f001 4500 	and.w	r5, r1, #2147483648	; 0x80000000
 5f8:	f021 4100 	bic.w	r1, r1, #2147483648	; 0x80000000
 5fc:	e720      	b.n	440 <__adddf3+0x138>
 5fe:	bf00      	nop

00000600 <__aeabi_ul2d>:
 600:	ea50 0201 	orrs.w	r2, r0, r1
 604:	bf08      	it	eq
 606:	4770      	bxeq	lr
 608:	b530      	push	{r4, r5, lr}
 60a:	f04f 0500 	mov.w	r5, #0
 60e:	e00a      	b.n	626 <__aeabi_l2d+0x16>

00000610 <__aeabi_l2d>:
 610:	ea50 0201 	orrs.w	r2, r0, r1
 614:	bf08      	it	eq
 616:	4770      	bxeq	lr
 618:	b530      	push	{r4, r5, lr}
 61a:	f011 4500 	ands.w	r5, r1, #2147483648	; 0x80000000
 61e:	d502      	bpl.n	626 <__aeabi_l2d+0x16>
 620:	4240      	negs	r0, r0
 622:	eb61 0141 	sbc.w	r1, r1, r1, lsl #1
 626:	f44f 6480 	mov.w	r4, #1024	; 0x400
 62a:	f104 0432 	add.w	r4, r4, #50	; 0x32
 62e:	ea5f 5c91 	movs.w	ip, r1, lsr #22
 632:	f43f aedc 	beq.w	3ee <__adddf3+0xe6>
 636:	f04f 0203 	mov.w	r2, #3
 63a:	ea5f 0cdc 	movs.w	ip, ip, lsr #3
 63e:	bf18      	it	ne
 640:	3203      	addne	r2, #3
 642:	ea5f 0cdc 	movs.w	ip, ip, lsr #3
 646:	bf18      	it	ne
 648:	3203      	addne	r2, #3
 64a:	eb02 02dc 	add.w	r2, r2, ip, lsr #3
 64e:	f1c2 0320 	rsb	r3, r2, #32
 652:	fa00 fc03 	lsl.w	ip, r0, r3
 656:	fa20 f002 	lsr.w	r0, r0, r2
 65a:	fa01 fe03 	lsl.w	lr, r1, r3
 65e:	ea40 000e 	orr.w	r0, r0, lr
 662:	fa21 f102 	lsr.w	r1, r1, r2
 666:	4414      	add	r4, r2
 668:	e6c1      	b.n	3ee <__adddf3+0xe6>
 66a:	bf00      	nop

0000066c <__aeabi_dmul>:
 66c:	b570      	push	{r4, r5, r6, lr}
 66e:	f04f 0cff 	mov.w	ip, #255	; 0xff
 672:	f44c 6ce0 	orr.w	ip, ip, #1792	; 0x700
 676:	ea1c 5411 	ands.w	r4, ip, r1, lsr #20
 67a:	bf1d      	ittte	ne
 67c:	ea1c 5513 	andsne.w	r5, ip, r3, lsr #20
 680:	ea94 0f0c 	teqne	r4, ip
 684:	ea95 0f0c 	teqne	r5, ip
 688:	f000 f8de 	bleq	848 <__aeabi_dmul+0x1dc>
 68c:	442c      	add	r4, r5
 68e:	ea81 0603 	eor.w	r6, r1, r3
 692:	ea21 514c 	bic.w	r1, r1, ip, lsl #21
 696:	ea23 534c 	bic.w	r3, r3, ip, lsl #21
 69a:	ea50 3501 	orrs.w	r5, r0, r1, lsl #12
 69e:	bf18      	it	ne
 6a0:	ea52 3503 	orrsne.w	r5, r2, r3, lsl #12
 6a4:	f441 1180 	orr.w	r1, r1, #1048576	; 0x100000
 6a8:	f443 1380 	orr.w	r3, r3, #1048576	; 0x100000
 6ac:	d038      	beq.n	720 <__aeabi_dmul+0xb4>
 6ae:	fba0 ce02 	umull	ip, lr, r0, r2
 6b2:	f04f 0500 	mov.w	r5, #0
 6b6:	fbe1 e502 	umlal	lr, r5, r1, r2
 6ba:	f006 4200 	and.w	r2, r6, #2147483648	; 0x80000000
 6be:	fbe0 e503 	umlal	lr, r5, r0, r3
 6c2:	f04f 0600 	mov.w	r6, #0
 6c6:	fbe1 5603 	umlal	r5, r6, r1, r3
 6ca:	f09c 0f00 	teq	ip, #0
 6ce:	bf18      	it	ne
 6d0:	f04e 0e01 	orrne.w	lr, lr, #1
 6d4:	f1a4 04ff 	sub.w	r4, r4, #255	; 0xff
 6d8:	f5b6 7f00 	cmp.w	r6, #512	; 0x200
 6dc:	f564 7440 	sbc.w	r4, r4, #768	; 0x300
 6e0:	d204      	bcs.n	6ec <__aeabi_dmul+0x80>
 6e2:	ea5f 0e4e 	movs.w	lr, lr, lsl #1
 6e6:	416d      	adcs	r5, r5
 6e8:	eb46 0606 	adc.w	r6, r6, r6
 6ec:	ea42 21c6 	orr.w	r1, r2, r6, lsl #11
 6f0:	ea41 5155 	orr.w	r1, r1, r5, lsr #21
 6f4:	ea4f 20c5 	mov.w	r0, r5, lsl #11
 6f8:	ea40 505e 	orr.w	r0, r0, lr, lsr #21
 6fc:	ea4f 2ece 	mov.w	lr, lr, lsl #11
 700:	f1b4 0cfd 	subs.w	ip, r4, #253	; 0xfd
 704:	bf88      	it	hi
 706:	f5bc 6fe0 	cmphi.w	ip, #1792	; 0x700
 70a:	d81e      	bhi.n	74a <__aeabi_dmul+0xde>
 70c:	f1be 4f00 	cmp.w	lr, #2147483648	; 0x80000000
 710:	bf08      	it	eq
 712:	ea5f 0e50 	movseq.w	lr, r0, lsr #1
 716:	f150 0000 	adcs.w	r0, r0, #0
 71a:	eb41 5104 	adc.w	r1, r1, r4, lsl #20
 71e:	bd70      	pop	{r4, r5, r6, pc}
 720:	f006 4600 	and.w	r6, r6, #2147483648	; 0x80000000
 724:	ea46 0101 	orr.w	r1, r6, r1
 728:	ea40 0002 	orr.w	r0, r0, r2
 72c:	ea81 0103 	eor.w	r1, r1, r3
 730:	ebb4 045c 	subs.w	r4, r4, ip, lsr #1
 734:	bfc2      	ittt	gt
 736:	ebd4 050c 	rsbsgt	r5, r4, ip
 73a:	ea41 5104 	orrgt.w	r1, r1, r4, lsl #20
 73e:	bd70      	popgt	{r4, r5, r6, pc}
 740:	f441 1180 	orr.w	r1, r1, #1048576	; 0x100000
 744:	f04f 0e00 	mov.w	lr, #0
 748:	3c01      	subs	r4, #1
 74a:	f300 80ab 	bgt.w	8a4 <__aeabi_dmul+0x238>
 74e:	f114 0f36 	cmn.w	r4, #54	; 0x36
 752:	bfde      	ittt	le
 754:	2000      	movle	r0, #0
 756:	f001 4100 	andle.w	r1, r1, #2147483648	; 0x80000000
 75a:	bd70      	pople	{r4, r5, r6, pc}
 75c:	f1c4 0400 	rsb	r4, r4, #0
 760:	3c20      	subs	r4, #32
 762:	da35      	bge.n	7d0 <__aeabi_dmul+0x164>
 764:	340c      	adds	r4, #12
 766:	dc1b      	bgt.n	7a0 <__aeabi_dmul+0x134>
 768:	f104 0414 	add.w	r4, r4, #20
 76c:	f1c4 0520 	rsb	r5, r4, #32
 770:	fa00 f305 	lsl.w	r3, r0, r5
 774:	fa20 f004 	lsr.w	r0, r0, r4
 778:	fa01 f205 	lsl.w	r2, r1, r5
 77c:	ea40 0002 	orr.w	r0, r0, r2
 780:	f001 4200 	and.w	r2, r1, #2147483648	; 0x80000000
 784:	f021 4100 	bic.w	r1, r1, #2147483648	; 0x80000000
 788:	eb10 70d3 	adds.w	r0, r0, r3, lsr #31
 78c:	fa21 f604 	lsr.w	r6, r1, r4
 790:	eb42 0106 	adc.w	r1, r2, r6
 794:	ea5e 0e43 	orrs.w	lr, lr, r3, lsl #1
 798:	bf08      	it	eq
 79a:	ea20 70d3 	biceq.w	r0, r0, r3, lsr #31
 79e:	bd70      	pop	{r4, r5, r6, pc}
 7a0:	f1c4 040c 	rsb	r4, r4, #12
 7a4:	f1c4 0520 	rsb	r5, r4, #32
 7a8:	fa00 f304 	lsl.w	r3, r0, r4
 7ac:	fa20 f005 	lsr.w	r0, r0, r5
 7b0:	fa01 f204 	lsl.w	r2, r1, r4
 7b4:	ea40 0002 	orr.w	r0, r0, r2
 7b8:	f001 4100 	and.w	r1, r1, #2147483648	; 0x80000000
 7bc:	eb10 70d3 	adds.w	r0, r0, r3, lsr #31
 7c0:	f141 0100 	adc.w	r1, r1, #0
 7c4:	ea5e 0e43 	orrs.w	lr, lr, r3, lsl #1
 7c8:	bf08      	it	eq
 7ca:	ea20 70d3 	biceq.w	r0, r0, r3, lsr #31
 7ce:	bd70      	pop	{r4, r5, r6, pc}
 7d0:	f1c4 0520 	rsb	r5, r4, #32
 7d4:	fa00 f205 	lsl.w	r2, r0, r5
 7d8:	ea4e 0e02 	orr.w	lr, lr, r2
 7dc:	fa20 f304 	lsr.w	r3, r0, r4
 7e0:	fa01 f205 	lsl.w	r2, r1, r5
 7e4:	ea43 0302 	orr.w	r3, r3, r2
 7e8:	fa21 f004 	lsr.w	r0, r1, r4
 7ec:	f001 4100 	and.w	r1, r1, #2147483648	; 0x80000000
 7f0:	fa21 f204 	lsr.w	r2, r1, r4
 7f4:	ea20 0002 	bic.w	r0, r0, r2
 7f8:	eb00 70d3 	add.w	r0, r0, r3, lsr #31
 7fc:	ea5e 0e43 	orrs.w	lr, lr, r3, lsl #1
 800:	bf08      	it	eq
 802:	ea20 70d3 	biceq.w	r0, r0, r3, lsr #31
 806:	bd70      	pop	{r4, r5, r6, pc}
 808:	f094 0f00 	teq	r4, #0
 80c:	d10f      	bne.n	82e <__aeabi_dmul+0x1c2>
 80e:	f001 4600 	and.w	r6, r1, #2147483648	; 0x80000000
 812:	0040      	lsls	r0, r0, #1
 814:	eb41 0101 	adc.w	r1, r1, r1
 818:	f411 1f80 	tst.w	r1, #1048576	; 0x100000
 81c:	bf08      	it	eq
 81e:	3c01      	subeq	r4, #1
 820:	d0f7      	beq.n	812 <__aeabi_dmul+0x1a6>
 822:	ea41 0106 	orr.w	r1, r1, r6
 826:	f095 0f00 	teq	r5, #0
 82a:	bf18      	it	ne
 82c:	4770      	bxne	lr
 82e:	f003 4600 	and.w	r6, r3, #2147483648	; 0x80000000
 832:	0052      	lsls	r2, r2, #1
 834:	eb43 0303 	adc.w	r3, r3, r3
 838:	f413 1f80 	tst.w	r3, #1048576	; 0x100000
 83c:	bf08      	it	eq
 83e:	3d01      	subeq	r5, #1
 840:	d0f7      	beq.n	832 <__aeabi_dmul+0x1c6>
 842:	ea43 0306 	orr.w	r3, r3, r6
 846:	4770      	bx	lr
 848:	ea94 0f0c 	teq	r4, ip
 84c:	ea0c 5513 	and.w	r5, ip, r3, lsr #20
 850:	bf18      	it	ne
 852:	ea95 0f0c 	teqne	r5, ip
 856:	d00c      	beq.n	872 <__aeabi_dmul+0x206>
 858:	ea50 0641 	orrs.w	r6, r0, r1, lsl #1
 85c:	bf18      	it	ne
 85e:	ea52 0643 	orrsne.w	r6, r2, r3, lsl #1
 862:	d1d1      	bne.n	808 <__aeabi_dmul+0x19c>
 864:	ea81 0103 	eor.w	r1, r1, r3
 868:	f001 4100 	and.w	r1, r1, #2147483648	; 0x80000000
 86c:	f04f 0000 	mov.w	r0, #0
 870:	bd70      	pop	{r4, r5, r6, pc}
 872:	ea50 0641 	orrs.w	r6, r0, r1, lsl #1
 876:	bf06      	itte	eq
 878:	4610      	moveq	r0, r2
 87a:	4619      	moveq	r1, r3
 87c:	ea52 0643 	orrsne.w	r6, r2, r3, lsl #1
 880:	d019      	beq.n	8b6 <__aeabi_dmul+0x24a>
 882:	ea94 0f0c 	teq	r4, ip
 886:	d102      	bne.n	88e <__aeabi_dmul+0x222>
 888:	ea50 3601 	orrs.w	r6, r0, r1, lsl #12
 88c:	d113      	bne.n	8b6 <__aeabi_dmul+0x24a>
 88e:	ea95 0f0c 	teq	r5, ip
 892:	d105      	bne.n	8a0 <__aeabi_dmul+0x234>
 894:	ea52 3603 	orrs.w	r6, r2, r3, lsl #12
 898:	bf1c      	itt	ne
 89a:	4610      	movne	r0, r2
 89c:	4619      	movne	r1, r3
 89e:	d10a      	bne.n	8b6 <__aeabi_dmul+0x24a>
 8a0:	ea81 0103 	eor.w	r1, r1, r3
 8a4:	f001 4100 	and.w	r1, r1, #2147483648	; 0x80000000
 8a8:	f041 41fe 	orr.w	r1, r1, #2130706432	; 0x7f000000
 8ac:	f441 0170 	orr.w	r1, r1, #15728640	; 0xf00000
 8b0:	f04f 0000 	mov.w	r0, #0
 8b4:	bd70      	pop	{r4, r5, r6, pc}
 8b6:	f041 41fe 	orr.w	r1, r1, #2130706432	; 0x7f000000
 8ba:	f441 0178 	orr.w	r1, r1, #16252928	; 0xf80000
 8be:	bd70      	pop	{r4, r5, r6, pc}

000008c0 <__aeabi_ddiv>:
 8c0:	b570      	push	{r4, r5, r6, lr}
 8c2:	f04f 0cff 	mov.w	ip, #255	; 0xff
 8c6:	f44c 6ce0 	orr.w	ip, ip, #1792	; 0x700
 8ca:	ea1c 5411 	ands.w	r4, ip, r1, lsr #20
 8ce:	bf1d      	ittte	ne
 8d0:	ea1c 5513 	andsne.w	r5, ip, r3, lsr #20
 8d4:	ea94 0f0c 	teqne	r4, ip
 8d8:	ea95 0f0c 	teqne	r5, ip
 8dc:	f000 f8a7 	bleq	a2e <__aeabi_ddiv+0x16e>
 8e0:	eba4 0405 	sub.w	r4, r4, r5
 8e4:	ea81 0e03 	eor.w	lr, r1, r3
 8e8:	ea52 3503 	orrs.w	r5, r2, r3, lsl #12
 8ec:	ea4f 3101 	mov.w	r1, r1, lsl #12
 8f0:	f000 8088 	beq.w	a04 <__aeabi_ddiv+0x144>
 8f4:	ea4f 3303 	mov.w	r3, r3, lsl #12
 8f8:	f04f 5580 	mov.w	r5, #268435456	; 0x10000000
 8fc:	ea45 1313 	orr.w	r3, r5, r3, lsr #4
 900:	ea43 6312 	orr.w	r3, r3, r2, lsr #24
 904:	ea4f 2202 	mov.w	r2, r2, lsl #8
 908:	ea45 1511 	orr.w	r5, r5, r1, lsr #4
 90c:	ea45 6510 	orr.w	r5, r5, r0, lsr #24
 910:	ea4f 2600 	mov.w	r6, r0, lsl #8
 914:	f00e 4100 	and.w	r1, lr, #2147483648	; 0x80000000
 918:	429d      	cmp	r5, r3
 91a:	bf08      	it	eq
 91c:	4296      	cmpeq	r6, r2
 91e:	f144 04fd 	adc.w	r4, r4, #253	; 0xfd
 922:	f504 7440 	add.w	r4, r4, #768	; 0x300
 926:	d202      	bcs.n	92e <__aeabi_ddiv+0x6e>
 928:	085b      	lsrs	r3, r3, #1
 92a:	ea4f 0232 	mov.w	r2, r2, rrx
 92e:	1ab6      	subs	r6, r6, r2
 930:	eb65 0503 	sbc.w	r5, r5, r3
 934:	085b      	lsrs	r3, r3, #1
 936:	ea4f 0232 	mov.w	r2, r2, rrx
 93a:	f44f 1080 	mov.w	r0, #1048576	; 0x100000
 93e:	f44f 2c00 	mov.w	ip, #524288	; 0x80000
 942:	ebb6 0e02 	subs.w	lr, r6, r2
 946:	eb75 0e03 	sbcs.w	lr, r5, r3
 94a:	bf22      	ittt	cs
 94c:	1ab6      	subcs	r6, r6, r2
 94e:	4675      	movcs	r5, lr
 950:	ea40 000c 	orrcs.w	r0, r0, ip
 954:	085b      	lsrs	r3, r3, #1
 956:	ea4f 0232 	mov.w	r2, r2, rrx
 95a:	ebb6 0e02 	subs.w	lr, r6, r2
 95e:	eb75 0e03 	sbcs.w	lr, r5, r3
 962:	bf22      	ittt	cs
 964:	1ab6      	subcs	r6, r6, r2
 966:	4675      	movcs	r5, lr
 968:	ea40 005c 	orrcs.w	r0, r0, ip, lsr #1
 96c:	085b      	lsrs	r3, r3, #1
 96e:	ea4f 0232 	mov.w	r2, r2, rrx
 972:	ebb6 0e02 	subs.w	lr, r6, r2
 976:	eb75 0e03 	sbcs.w	lr, r5, r3
 97a:	bf22      	ittt	cs
 97c:	1ab6      	subcs	r6, r6, r2
 97e:	4675      	movcs	r5, lr
 980:	ea40 009c 	orrcs.w	r0, r0, ip, lsr #2
 984:	085b      	lsrs	r3, r3, #1
 986:	ea4f 0232 	mov.w	r2, r2, rrx
 98a:	ebb6 0e02 	subs.w	lr, r6, r2
 98e:	eb75 0e03 	sbcs.w	lr, r5, r3
 992:	bf22      	ittt	cs
 994:	1ab6      	subcs	r6, r6, r2
 996:	4675      	movcs	r5, lr
 998:	ea40 00dc 	orrcs.w	r0, r0, ip, lsr #3
 99c:	ea55 0e06 	orrs.w	lr, r5, r6
 9a0:	d018      	beq.n	9d4 <__aeabi_ddiv+0x114>
 9a2:	ea4f 1505 	mov.w	r5, r5, lsl #4
 9a6:	ea45 7516 	orr.w	r5, r5, r6, lsr #28
 9aa:	ea4f 1606 	mov.w	r6, r6, lsl #4
 9ae:	ea4f 03c3 	mov.w	r3, r3, lsl #3
 9b2:	ea43 7352 	orr.w	r3, r3, r2, lsr #29
 9b6:	ea4f 02c2 	mov.w	r2, r2, lsl #3
 9ba:	ea5f 1c1c 	movs.w	ip, ip, lsr #4
 9be:	d1c0      	bne.n	942 <__aeabi_ddiv+0x82>
 9c0:	f411 1f80 	tst.w	r1, #1048576	; 0x100000
 9c4:	d10b      	bne.n	9de <__aeabi_ddiv+0x11e>
 9c6:	ea41 0100 	orr.w	r1, r1, r0
 9ca:	f04f 0000 	mov.w	r0, #0
 9ce:	f04f 4c00 	mov.w	ip, #2147483648	; 0x80000000
 9d2:	e7b6      	b.n	942 <__aeabi_ddiv+0x82>
 9d4:	f411 1f80 	tst.w	r1, #1048576	; 0x100000
 9d8:	bf04      	itt	eq
 9da:	4301      	orreq	r1, r0
 9dc:	2000      	moveq	r0, #0
 9de:	f1b4 0cfd 	subs.w	ip, r4, #253	; 0xfd
 9e2:	bf88      	it	hi
 9e4:	f5bc 6fe0 	cmphi.w	ip, #1792	; 0x700
 9e8:	f63f aeaf 	bhi.w	74a <__aeabi_dmul+0xde>
 9ec:	ebb5 0c03 	subs.w	ip, r5, r3
 9f0:	bf04      	itt	eq
 9f2:	ebb6 0c02 	subseq.w	ip, r6, r2
 9f6:	ea5f 0c50 	movseq.w	ip, r0, lsr #1
 9fa:	f150 0000 	adcs.w	r0, r0, #0
 9fe:	eb41 5104 	adc.w	r1, r1, r4, lsl #20
 a02:	bd70      	pop	{r4, r5, r6, pc}
 a04:	f00e 4e00 	and.w	lr, lr, #2147483648	; 0x80000000
 a08:	ea4e 3111 	orr.w	r1, lr, r1, lsr #12
 a0c:	eb14 045c 	adds.w	r4, r4, ip, lsr #1
 a10:	bfc2      	ittt	gt
 a12:	ebd4 050c 	rsbsgt	r5, r4, ip
 a16:	ea41 5104 	orrgt.w	r1, r1, r4, lsl #20
 a1a:	bd70      	popgt	{r4, r5, r6, pc}
 a1c:	f441 1180 	orr.w	r1, r1, #1048576	; 0x100000
 a20:	f04f 0e00 	mov.w	lr, #0
 a24:	3c01      	subs	r4, #1
 a26:	e690      	b.n	74a <__aeabi_dmul+0xde>
 a28:	ea45 0e06 	orr.w	lr, r5, r6
 a2c:	e68d      	b.n	74a <__aeabi_dmul+0xde>
 a2e:	ea0c 5513 	and.w	r5, ip, r3, lsr #20
 a32:	ea94 0f0c 	teq	r4, ip
 a36:	bf08      	it	eq
 a38:	ea95 0f0c 	teqeq	r5, ip
 a3c:	f43f af3b 	beq.w	8b6 <__aeabi_dmul+0x24a>
 a40:	ea94 0f0c 	teq	r4, ip
 a44:	d10a      	bne.n	a5c <__aeabi_ddiv+0x19c>
 a46:	ea50 3401 	orrs.w	r4, r0, r1, lsl #12
 a4a:	f47f af34 	bne.w	8b6 <__aeabi_dmul+0x24a>
 a4e:	ea95 0f0c 	teq	r5, ip
 a52:	f47f af25 	bne.w	8a0 <__aeabi_dmul+0x234>
 a56:	4610      	mov	r0, r2
 a58:	4619      	mov	r1, r3
 a5a:	e72c      	b.n	8b6 <__aeabi_dmul+0x24a>
 a5c:	ea95 0f0c 	teq	r5, ip
 a60:	d106      	bne.n	a70 <__aeabi_ddiv+0x1b0>
 a62:	ea52 3503 	orrs.w	r5, r2, r3, lsl #12
 a66:	f43f aefd 	beq.w	864 <__aeabi_dmul+0x1f8>
 a6a:	4610      	mov	r0, r2
 a6c:	4619      	mov	r1, r3
 a6e:	e722      	b.n	8b6 <__aeabi_dmul+0x24a>
 a70:	ea50 0641 	orrs.w	r6, r0, r1, lsl #1
 a74:	bf18      	it	ne
 a76:	ea52 0643 	orrsne.w	r6, r2, r3, lsl #1
 a7a:	f47f aec5 	bne.w	808 <__aeabi_dmul+0x19c>
 a7e:	ea50 0441 	orrs.w	r4, r0, r1, lsl #1
 a82:	f47f af0d 	bne.w	8a0 <__aeabi_dmul+0x234>
 a86:	ea52 0543 	orrs.w	r5, r2, r3, lsl #1
 a8a:	f47f aeeb 	bne.w	864 <__aeabi_dmul+0x1f8>
 a8e:	e712      	b.n	8b6 <__aeabi_dmul+0x24a>

00000a90 <__gedf2>:
 a90:	f04f 3cff 	mov.w	ip, #4294967295
 a94:	e006      	b.n	aa4 <__cmpdf2+0x4>
 a96:	bf00      	nop

00000a98 <__ledf2>:
 a98:	f04f 0c01 	mov.w	ip, #1
 a9c:	e002      	b.n	aa4 <__cmpdf2+0x4>
 a9e:	bf00      	nop

00000aa0 <__cmpdf2>:
 aa0:	f04f 0c01 	mov.w	ip, #1
 aa4:	f84d cd04 	str.w	ip, [sp, #-4]!
 aa8:	ea4f 0c41 	mov.w	ip, r1, lsl #1
 aac:	ea7f 5c6c 	mvns.w	ip, ip, asr #21
 ab0:	ea4f 0c43 	mov.w	ip, r3, lsl #1
 ab4:	bf18      	it	ne
 ab6:	ea7f 5c6c 	mvnsne.w	ip, ip, asr #21
 aba:	d01b      	beq.n	af4 <__cmpdf2+0x54>
 abc:	b001      	add	sp, #4
 abe:	ea50 0c41 	orrs.w	ip, r0, r1, lsl #1
 ac2:	bf0c      	ite	eq
 ac4:	ea52 0c43 	orrseq.w	ip, r2, r3, lsl #1
 ac8:	ea91 0f03 	teqne	r1, r3
 acc:	bf02      	ittt	eq
 ace:	ea90 0f02 	teqeq	r0, r2
 ad2:	2000      	moveq	r0, #0
 ad4:	4770      	bxeq	lr
 ad6:	f110 0f00 	cmn.w	r0, #0
 ada:	ea91 0f03 	teq	r1, r3
 ade:	bf58      	it	pl
 ae0:	4299      	cmppl	r1, r3
 ae2:	bf08      	it	eq
 ae4:	4290      	cmpeq	r0, r2
 ae6:	bf2c      	ite	cs
 ae8:	17d8      	asrcs	r0, r3, #31
 aea:	ea6f 70e3 	mvncc.w	r0, r3, asr #31
 aee:	f040 0001 	orr.w	r0, r0, #1
 af2:	4770      	bx	lr
 af4:	ea4f 0c41 	mov.w	ip, r1, lsl #1
 af8:	ea7f 5c6c 	mvns.w	ip, ip, asr #21
 afc:	d102      	bne.n	b04 <__cmpdf2+0x64>
 afe:	ea50 3c01 	orrs.w	ip, r0, r1, lsl #12
 b02:	d107      	bne.n	b14 <__cmpdf2+0x74>
 b04:	ea4f 0c43 	mov.w	ip, r3, lsl #1
 b08:	ea7f 5c6c 	mvns.w	ip, ip, asr #21
 b0c:	d1d6      	bne.n	abc <__cmpdf2+0x1c>
 b0e:	ea52 3c03 	orrs.w	ip, r2, r3, lsl #12
 b12:	d0d3      	beq.n	abc <__cmpdf2+0x1c>
 b14:	f85d 0b04 	ldr.w	r0, [sp], #4
 b18:	4770      	bx	lr
 b1a:	bf00      	nop

00000b1c <__aeabi_cdrcmple>:
 b1c:	4684      	mov	ip, r0
 b1e:	4610      	mov	r0, r2
 b20:	4662      	mov	r2, ip
 b22:	468c      	mov	ip, r1
 b24:	4619      	mov	r1, r3
 b26:	4663      	mov	r3, ip
 b28:	e000      	b.n	b2c <__aeabi_cdcmpeq>
 b2a:	bf00      	nop

00000b2c <__aeabi_cdcmpeq>:
 b2c:	b501      	push	{r0, lr}
 b2e:	f7ff ffb7 	bl	aa0 <__cmpdf2>
 b32:	2800      	cmp	r0, #0
 b34:	bf48      	it	mi
 b36:	f110 0f00 	cmnmi.w	r0, #0
 b3a:	bd01      	pop	{r0, pc}

00000b3c <__aeabi_dcmpeq>:
 b3c:	f84d ed08 	str.w	lr, [sp, #-8]!
 b40:	f7ff fff4 	bl	b2c <__aeabi_cdcmpeq>
 b44:	bf0c      	ite	eq
 b46:	2001      	moveq	r0, #1
 b48:	2000      	movne	r0, #0
 b4a:	f85d fb08 	ldr.w	pc, [sp], #8
 b4e:	bf00      	nop

00000b50 <__aeabi_dcmplt>:
 b50:	f84d ed08 	str.w	lr, [sp, #-8]!
 b54:	f7ff ffea 	bl	b2c <__aeabi_cdcmpeq>
 b58:	bf34      	ite	cc
 b5a:	2001      	movcc	r0, #1
 b5c:	2000      	movcs	r0, #0
 b5e:	f85d fb08 	ldr.w	pc, [sp], #8
 b62:	bf00      	nop

00000b64 <__aeabi_dcmple>:
 b64:	f84d ed08 	str.w	lr, [sp, #-8]!
 b68:	f7ff ffe0 	bl	b2c <__aeabi_cdcmpeq>
 b6c:	bf94      	ite	ls
 b6e:	2001      	movls	r0, #1
 b70:	2000      	movhi	r0, #0
 b72:	f85d fb08 	ldr.w	pc, [sp], #8
 b76:	bf00      	nop

00000b78 <__aeabi_dcmpge>:
 b78:	f84d ed08 	str.w	lr, [sp, #-8]!
 b7c:	f7ff ffce 	bl	b1c <__aeabi_cdrcmple>
 b80:	bf94      	ite	ls
 b82:	2001      	movls	r0, #1
 b84:	2000      	movhi	r0, #0
 b86:	f85d fb08 	ldr.w	pc, [sp], #8
 b8a:	bf00      	nop

00000b8c <__aeabi_dcmpgt>:
 b8c:	f84d ed08 	str.w	lr, [sp, #-8]!
 b90:	f7ff ffc4 	bl	b1c <__aeabi_cdrcmple>
 b94:	bf34      	ite	cc
 b96:	2001      	movcc	r0, #1
 b98:	2000      	movcs	r0, #0
 b9a:	f85d fb08 	ldr.w	pc, [sp], #8
 b9e:	bf00      	nop

00000ba0 <__aeabi_d2iz>:
 ba0:	ea4f 0241 	mov.w	r2, r1, lsl #1
 ba4:	f512 1200 	adds.w	r2, r2, #2097152	; 0x200000
 ba8:	d215      	bcs.n	bd6 <__aeabi_d2iz+0x36>
 baa:	d511      	bpl.n	bd0 <__aeabi_d2iz+0x30>
 bac:	f46f 7378 	mvn.w	r3, #992	; 0x3e0
 bb0:	ebb3 5262 	subs.w	r2, r3, r2, asr #21
 bb4:	d912      	bls.n	bdc <__aeabi_d2iz+0x3c>
 bb6:	ea4f 23c1 	mov.w	r3, r1, lsl #11
 bba:	f043 4300 	orr.w	r3, r3, #2147483648	; 0x80000000
 bbe:	ea43 5350 	orr.w	r3, r3, r0, lsr #21
 bc2:	f011 4f00 	tst.w	r1, #2147483648	; 0x80000000
 bc6:	fa23 f002 	lsr.w	r0, r3, r2
 bca:	bf18      	it	ne
 bcc:	4240      	negne	r0, r0
 bce:	4770      	bx	lr
 bd0:	f04f 0000 	mov.w	r0, #0
 bd4:	4770      	bx	lr
 bd6:	ea50 3001 	orrs.w	r0, r0, r1, lsl #12
 bda:	d105      	bne.n	be8 <__aeabi_d2iz+0x48>
 bdc:	f011 4000 	ands.w	r0, r1, #2147483648	; 0x80000000
 be0:	bf08      	it	eq
 be2:	f06f 4000 	mvneq.w	r0, #2147483648	; 0x80000000
 be6:	4770      	bx	lr
 be8:	f04f 0000 	mov.w	r0, #0
 bec:	4770      	bx	lr
 bee:	bf00      	nop

00000bf0 <memset>:
 bf0:	b470      	push	{r4, r5, r6}
 bf2:	0784      	lsls	r4, r0, #30
 bf4:	4603      	mov	r3, r0
 bf6:	d044      	beq.n	c82 <memset+0x92>
 bf8:	1e54      	subs	r4, r2, #1
 bfa:	2a00      	cmp	r2, #0
 bfc:	d03f      	beq.n	c7e <memset+0x8e>
 bfe:	b2ce      	uxtb	r6, r1
 c00:	e002      	b.n	c08 <memset+0x18>
 c02:	2c00      	cmp	r4, #0
 c04:	d03b      	beq.n	c7e <memset+0x8e>
 c06:	4614      	mov	r4, r2
 c08:	f803 6b01 	strb.w	r6, [r3], #1
 c0c:	f013 0f03 	tst.w	r3, #3
 c10:	461d      	mov	r5, r3
 c12:	f104 32ff 	add.w	r2, r4, #4294967295
 c16:	d1f4      	bne.n	c02 <memset+0x12>
 c18:	2c03      	cmp	r4, #3
 c1a:	d929      	bls.n	c70 <memset+0x80>
 c1c:	b2ca      	uxtb	r2, r1
 c1e:	2c0f      	cmp	r4, #15
 c20:	bf84      	itt	hi
 c22:	462b      	movhi	r3, r5
 c24:	4626      	movhi	r6, r4
 c26:	ea42 2202 	orr.w	r2, r2, r2, lsl #8
 c2a:	ea42 4202 	orr.w	r2, r2, r2, lsl #16
 c2e:	d911      	bls.n	c54 <memset+0x64>
 c30:	3e10      	subs	r6, #16
 c32:	601a      	str	r2, [r3, #0]
 c34:	605a      	str	r2, [r3, #4]
 c36:	609a      	str	r2, [r3, #8]
 c38:	60da      	str	r2, [r3, #12]
 c3a:	3310      	adds	r3, #16
 c3c:	2e0f      	cmp	r6, #15
 c3e:	d8f7      	bhi.n	c30 <memset+0x40>
 c40:	f1a4 0310 	sub.w	r3, r4, #16
 c44:	f004 040f 	and.w	r4, r4, #15
 c48:	f023 030f 	bic.w	r3, r3, #15
 c4c:	3310      	adds	r3, #16
 c4e:	2c03      	cmp	r4, #3
 c50:	441d      	add	r5, r3
 c52:	d90d      	bls.n	c70 <memset+0x80>
 c54:	462e      	mov	r6, r5
 c56:	4623      	mov	r3, r4
 c58:	3b04      	subs	r3, #4
 c5a:	f846 2b04 	str.w	r2, [r6], #4
 c5e:	2b03      	cmp	r3, #3
 c60:	d8fa      	bhi.n	c58 <memset+0x68>
 c62:	1f23      	subs	r3, r4, #4
 c64:	f004 0403 	and.w	r4, r4, #3
 c68:	f023 0303 	bic.w	r3, r3, #3
 c6c:	3304      	adds	r3, #4
 c6e:	18ed      	adds	r5, r5, r3
 c70:	b12c      	cbz	r4, c7e <memset+0x8e>
 c72:	b2c9      	uxtb	r1, r1
 c74:	192c      	adds	r4, r5, r4
 c76:	f805 1b01 	strb.w	r1, [r5], #1
 c7a:	42a5      	cmp	r5, r4
 c7c:	d1fb      	bne.n	c76 <memset+0x86>
 c7e:	bc70      	pop	{r4, r5, r6}
 c80:	4770      	bx	lr
 c82:	4605      	mov	r5, r0
 c84:	4614      	mov	r4, r2
 c86:	e7c7      	b.n	c18 <memset+0x28>

00000c88 <strcmp>:
 c88:	ea80 0201 	eor.w	r2, r0, r1
 c8c:	f012 0f03 	tst.w	r2, #3
 c90:	f040 803a 	bne.w	d08 <strcmp_unaligned>
 c94:	f010 0203 	ands.w	r2, r0, #3
 c98:	f020 0003 	bic.w	r0, r0, #3
 c9c:	f021 0103 	bic.w	r1, r1, #3
 ca0:	f850 cb04 	ldr.w	ip, [r0], #4
 ca4:	bf08      	it	eq
 ca6:	f851 3b04 	ldreq.w	r3, [r1], #4
 caa:	d00d      	beq.n	cc8 <strcmp+0x40>
 cac:	f082 0203 	eor.w	r2, r2, #3
 cb0:	ea4f 02c2 	mov.w	r2, r2, lsl #3
 cb4:	f06f 437f 	mvn.w	r3, #4278190080	; 0xff000000
 cb8:	fa23 f202 	lsr.w	r2, r3, r2
 cbc:	f851 3b04 	ldr.w	r3, [r1], #4
 cc0:	ea4c 0c02 	orr.w	ip, ip, r2
 cc4:	ea43 0302 	orr.w	r3, r3, r2
 cc8:	f1ac 3201 	sub.w	r2, ip, #16843009	; 0x1010101
 ccc:	459c      	cmp	ip, r3
 cce:	bf01      	itttt	eq
 cd0:	ea22 020c 	biceq.w	r2, r2, ip
 cd4:	f012 3f80 	tsteq.w	r2, #2155905152	; 0x80808080
 cd8:	f850 cb04 	ldreq.w	ip, [r0], #4
 cdc:	f851 3b04 	ldreq.w	r3, [r1], #4
 ce0:	d0f2      	beq.n	cc8 <strcmp+0x40>
 ce2:	ea4f 600c 	mov.w	r0, ip, lsl #24
 ce6:	ea4f 2c1c 	mov.w	ip, ip, lsr #8
 cea:	2801      	cmp	r0, #1
 cec:	bf28      	it	cs
 cee:	ebb0 6f03 	cmpcs.w	r0, r3, lsl #24
 cf2:	bf08      	it	eq
 cf4:	0a1b      	lsreq	r3, r3, #8
 cf6:	d0f4      	beq.n	ce2 <strcmp+0x5a>
 cf8:	f003 03ff 	and.w	r3, r3, #255	; 0xff
 cfc:	ea4f 6010 	mov.w	r0, r0, lsr #24
 d00:	eba0 0003 	sub.w	r0, r0, r3
 d04:	4770      	bx	lr
 d06:	bf00      	nop

00000d08 <strcmp_unaligned>:
 d08:	f010 0f03 	tst.w	r0, #3
 d0c:	d00a      	beq.n	d24 <strcmp_unaligned+0x1c>
 d0e:	f810 2b01 	ldrb.w	r2, [r0], #1
 d12:	f811 3b01 	ldrb.w	r3, [r1], #1
 d16:	2a01      	cmp	r2, #1
 d18:	bf28      	it	cs
 d1a:	429a      	cmpcs	r2, r3
 d1c:	d0f4      	beq.n	d08 <strcmp_unaligned>
 d1e:	eba2 0003 	sub.w	r0, r2, r3
 d22:	4770      	bx	lr
 d24:	f84d 5d04 	str.w	r5, [sp, #-4]!
 d28:	f84d 4d04 	str.w	r4, [sp, #-4]!
 d2c:	f04f 0201 	mov.w	r2, #1
 d30:	ea42 2202 	orr.w	r2, r2, r2, lsl #8
 d34:	ea42 4202 	orr.w	r2, r2, r2, lsl #16
 d38:	f001 0c03 	and.w	ip, r1, #3
 d3c:	f021 0103 	bic.w	r1, r1, #3
 d40:	f850 4b04 	ldr.w	r4, [r0], #4
 d44:	f851 5b04 	ldr.w	r5, [r1], #4
 d48:	f1bc 0f02 	cmp.w	ip, #2
 d4c:	d026      	beq.n	d9c <strcmp_unaligned+0x94>
 d4e:	d84b      	bhi.n	de8 <strcmp_unaligned+0xe0>
 d50:	f024 4c7f 	bic.w	ip, r4, #4278190080	; 0xff000000
 d54:	ebbc 2f15 	cmp.w	ip, r5, lsr #8
 d58:	eba4 0302 	sub.w	r3, r4, r2
 d5c:	ea23 0304 	bic.w	r3, r3, r4
 d60:	d10d      	bne.n	d7e <strcmp_unaligned+0x76>
 d62:	ea13 13c2 	ands.w	r3, r3, r2, lsl #7
 d66:	bf08      	it	eq
 d68:	f851 5b04 	ldreq.w	r5, [r1], #4
 d6c:	d10a      	bne.n	d84 <strcmp_unaligned+0x7c>
 d6e:	ea8c 0c04 	eor.w	ip, ip, r4
 d72:	ebbc 6f05 	cmp.w	ip, r5, lsl #24
 d76:	d10c      	bne.n	d92 <strcmp_unaligned+0x8a>
 d78:	f850 4b04 	ldr.w	r4, [r0], #4
 d7c:	e7e8      	b.n	d50 <strcmp_unaligned+0x48>
 d7e:	ea4f 2515 	mov.w	r5, r5, lsr #8
 d82:	e05c      	b.n	e3e <strcmp_unaligned+0x136>
 d84:	f033 437f 	bics.w	r3, r3, #4278190080	; 0xff000000
 d88:	d152      	bne.n	e30 <strcmp_unaligned+0x128>
 d8a:	780d      	ldrb	r5, [r1, #0]
 d8c:	ea4f 6c14 	mov.w	ip, r4, lsr #24
 d90:	e055      	b.n	e3e <strcmp_unaligned+0x136>
 d92:	ea4f 6c14 	mov.w	ip, r4, lsr #24
 d96:	f005 05ff 	and.w	r5, r5, #255	; 0xff
 d9a:	e050      	b.n	e3e <strcmp_unaligned+0x136>
 d9c:	ea4f 4c04 	mov.w	ip, r4, lsl #16
 da0:	eba4 0302 	sub.w	r3, r4, r2
 da4:	ea4f 4c1c 	mov.w	ip, ip, lsr #16
 da8:	ea23 0304 	bic.w	r3, r3, r4
 dac:	ebbc 4f15 	cmp.w	ip, r5, lsr #16
 db0:	d117      	bne.n	de2 <strcmp_unaligned+0xda>
 db2:	ea13 13c2 	ands.w	r3, r3, r2, lsl #7
 db6:	bf08      	it	eq
 db8:	f851 5b04 	ldreq.w	r5, [r1], #4
 dbc:	d107      	bne.n	dce <strcmp_unaligned+0xc6>
 dbe:	ea8c 0c04 	eor.w	ip, ip, r4
 dc2:	ebbc 4f05 	cmp.w	ip, r5, lsl #16
 dc6:	d108      	bne.n	dda <strcmp_unaligned+0xd2>
 dc8:	f850 4b04 	ldr.w	r4, [r0], #4
 dcc:	e7e6      	b.n	d9c <strcmp_unaligned+0x94>
 dce:	041b      	lsls	r3, r3, #16
 dd0:	d12e      	bne.n	e30 <strcmp_unaligned+0x128>
 dd2:	880d      	ldrh	r5, [r1, #0]
 dd4:	ea4f 4c14 	mov.w	ip, r4, lsr #16
 dd8:	e031      	b.n	e3e <strcmp_unaligned+0x136>
 dda:	ea4f 4505 	mov.w	r5, r5, lsl #16
 dde:	ea4f 4c14 	mov.w	ip, r4, lsr #16
 de2:	ea4f 4515 	mov.w	r5, r5, lsr #16
 de6:	e02a      	b.n	e3e <strcmp_unaligned+0x136>
 de8:	f004 0cff 	and.w	ip, r4, #255	; 0xff
 dec:	ebbc 6f15 	cmp.w	ip, r5, lsr #24
 df0:	eba4 0302 	sub.w	r3, r4, r2
 df4:	ea23 0304 	bic.w	r3, r3, r4
 df8:	d10d      	bne.n	e16 <strcmp_unaligned+0x10e>
 dfa:	ea13 13c2 	ands.w	r3, r3, r2, lsl #7
 dfe:	bf08      	it	eq
 e00:	f851 5b04 	ldreq.w	r5, [r1], #4
 e04:	d10a      	bne.n	e1c <strcmp_unaligned+0x114>
 e06:	ea8c 0c04 	eor.w	ip, ip, r4
 e0a:	ebbc 2f05 	cmp.w	ip, r5, lsl #8
 e0e:	d10a      	bne.n	e26 <strcmp_unaligned+0x11e>
 e10:	f850 4b04 	ldr.w	r4, [r0], #4
 e14:	e7e8      	b.n	de8 <strcmp_unaligned+0xe0>
 e16:	ea4f 6515 	mov.w	r5, r5, lsr #24
 e1a:	e010      	b.n	e3e <strcmp_unaligned+0x136>
 e1c:	f014 0fff 	tst.w	r4, #255	; 0xff
 e20:	d006      	beq.n	e30 <strcmp_unaligned+0x128>
 e22:	f851 5b04 	ldr.w	r5, [r1], #4
 e26:	ea4f 2c14 	mov.w	ip, r4, lsr #8
 e2a:	f025 457f 	bic.w	r5, r5, #4278190080	; 0xff000000
 e2e:	e006      	b.n	e3e <strcmp_unaligned+0x136>
 e30:	f04f 0000 	mov.w	r0, #0
 e34:	f85d 4b04 	ldr.w	r4, [sp], #4
 e38:	f85d 5b04 	ldr.w	r5, [sp], #4
 e3c:	4770      	bx	lr
 e3e:	f00c 02ff 	and.w	r2, ip, #255	; 0xff
 e42:	f005 00ff 	and.w	r0, r5, #255	; 0xff
 e46:	2801      	cmp	r0, #1
 e48:	bf28      	it	cs
 e4a:	4290      	cmpcs	r0, r2
 e4c:	bf04      	itt	eq
 e4e:	ea4f 2c1c 	moveq.w	ip, ip, lsr #8
 e52:	0a2d      	lsreq	r5, r5, #8
 e54:	d0f3      	beq.n	e3e <strcmp_unaligned+0x136>
 e56:	eba2 0000 	sub.w	r0, r2, r0
 e5a:	f85d 4b04 	ldr.w	r4, [sp], #4
 e5e:	f85d 5b04 	ldr.w	r5, [sp], #4
 e62:	4770      	bx	lr

00000e64 <strlen>:
 e64:	f020 0103 	bic.w	r1, r0, #3
 e68:	f010 0003 	ands.w	r0, r0, #3
 e6c:	f1c0 0000 	rsb	r0, r0, #0
 e70:	f851 3b04 	ldr.w	r3, [r1], #4
 e74:	f100 0c04 	add.w	ip, r0, #4
 e78:	ea4f 0ccc 	mov.w	ip, ip, lsl #3
 e7c:	f06f 0200 	mvn.w	r2, #0
 e80:	bf1c      	itt	ne
 e82:	fa22 f20c 	lsrne.w	r2, r2, ip
 e86:	4313      	orrne	r3, r2
 e88:	f04f 0c01 	mov.w	ip, #1
 e8c:	ea4c 2c0c 	orr.w	ip, ip, ip, lsl #8
 e90:	ea4c 4c0c 	orr.w	ip, ip, ip, lsl #16
 e94:	eba3 020c 	sub.w	r2, r3, ip
 e98:	ea22 0203 	bic.w	r2, r2, r3
 e9c:	ea12 12cc 	ands.w	r2, r2, ip, lsl #7
 ea0:	bf04      	itt	eq
 ea2:	f851 3b04 	ldreq.w	r3, [r1], #4
 ea6:	3004      	addeq	r0, #4
 ea8:	d0f4      	beq.n	e94 <strlen+0x30>
 eaa:	f013 0fff 	tst.w	r3, #255	; 0xff
 eae:	bf1f      	itttt	ne
 eb0:	3001      	addne	r0, #1
 eb2:	f413 4f7f 	tstne.w	r3, #65280	; 0xff00
 eb6:	3001      	addne	r0, #1
 eb8:	f413 0f7f 	tstne.w	r3, #16711680	; 0xff0000
 ebc:	bf18      	it	ne
 ebe:	3001      	addne	r0, #1
 ec0:	4770      	bx	lr
 ec2:	bf00      	nop

Disassembly of section .text.arm_Init:

00000ec4 <arm_Init>:
		// --------------------------------------------------
		#if defined (arm7tdmi)
		MEMMAP = MEMMAP_FLASH;
		#endif
		#if defined (cortexm3)
		vtor_SetInCode(0); // Definir a tabela de ints no endereo 0 da flash
 ec4:	4a3e      	ldr	r2, [pc, #248]	; (fc0 <arm_Init+0xfc>)
 ec6:	2300      	movs	r3, #0

// -----------------------------------------------------------------------------------------------
// Descrio:	Incialiaza clock do processador e dos barramentos atravs do STARTUP
// ajustes no makefile 	
// -----------------------------------------------------------------------------------------------
void arm_Init (void) {
 ec8:	b530      	push	{r4, r5, lr}
		// --------------------------------------------------
		#if defined (arm7tdmi)
		MEMMAP = MEMMAP_FLASH;
		#endif
		#if defined (cortexm3)
		vtor_SetInCode(0); // Definir a tabela de ints no endereo 0 da flash
 eca:	6013      	str	r3, [r2, #0]
	//		Pois, isto economiza energia
	#if defined (arm7tdmi)
	PCONP = 0;
	#endif
	#if defined (cortexm3)
	PCONP = PCGPIO; // Vamos deixar somente o GPIO habilitado, pois este habilita tambm os IOCONS (pinsel)
 ecc:	4a3d      	ldr	r2, [pc, #244]	; (fc4 <arm_Init+0x100>)
 ece:	f44f 4100 	mov.w	r1, #32768	; 0x8000
 ed2:	6011      	str	r1, [r2, #0]
	cclksel_sysClk();  // Seleciona o oscilador RC para o divisor do CCLK, PCLK e MEMCLK
	cclksel_clkDiv(1); // Divisor 1:1 para o CCLK
	#endif

	#if defined(LPC1751) || defined(LPC1752)
	cclksel_clkDiv(2); 						// Divisor 1:1 para o CCLK
 ed4:	6c11      	ldr	r1, [r2, #64]	; 0x40
 ed6:	f021 01ff 	bic.w	r1, r1, #255	; 0xff
 eda:	f041 0101 	orr.w	r1, r1, #1
 ede:	6411      	str	r1, [r2, #64]	; 0x40
	#endif

	#if defined(OSC_XTAL)
	clksrcsel_oscRC(); 						// habilitar o oscilador RC interno para o sistema
 ee0:	3248      	adds	r2, #72	; 0x48
 ee2:	6013      	str	r3, [r2, #0]
	scs_oscOFF(); 							// Desabiltar o osc MAIN
 ee4:	4b38      	ldr	r3, [pc, #224]	; (fc8 <arm_Init+0x104>)
 ee6:	6819      	ldr	r1, [r3, #0]
 ee8:	f021 0120 	bic.w	r1, r1, #32
 eec:	6019      	str	r1, [r3, #0]
	#if (F_CPU > 20000000)
	SCS |= SCS_OSCRANGE_15MHZ_25MHZ;
	#endif
  	scs_oscON();							// Liga o oscilador MAIN
 eee:	6819      	ldr	r1, [r3, #0]
 ef0:	f041 0120 	orr.w	r1, r1, #32
 ef4:	6019      	str	r1, [r3, #0]
  	while( !(SCS & SCS_OSCSTAT) );			// Espero at que o oscilador principal esteja pronto para uso como fonte de clock para o PLL
 ef6:	6819      	ldr	r1, [r3, #0]
 ef8:	0649      	lsls	r1, r1, #25
 efa:	d5fc      	bpl.n	ef6 <arm_Init+0x32>
  	clksrcsel_oscMAIN(); 					// Habilita o oscilador MAIN para o sistema
 efc:	2301      	movs	r3, #1
 efe:	6013      	str	r3, [r2, #0]
  	#endif

  	pll_OFF(); 								// Desabilita PLL
 f00:	4a32      	ldr	r2, [pc, #200]	; (fcc <arm_Init+0x108>)
 f02:	2300      	movs	r3, #0
 f04:	6013      	str	r3, [r2, #0]
  	PLLFEED = 0xAA;	PLLFEED = 0x55;			// Sequencia para validar as mudanas nos registradores PLLCON e PLLCFG
  	PLLCFG = PLLCFG_MSEL | PLLCFG_PSEL;		// Ajustando o multiplicador e divisor do PLL
 f06:	4c32      	ldr	r4, [pc, #200]	; (fd0 <arm_Init+0x10c>)
  	while( !(SCS & SCS_OSCSTAT) );			// Espero at que o oscilador principal esteja pronto para uso como fonte de clock para o PLL
  	clksrcsel_oscMAIN(); 					// Habilita o oscilador MAIN para o sistema
  	#endif

  	pll_OFF(); 								// Desabilita PLL
  	PLLFEED = 0xAA;	PLLFEED = 0x55;			// Sequencia para validar as mudanas nos registradores PLLCON e PLLCFG
 f08:	4b32      	ldr	r3, [pc, #200]	; (fd4 <arm_Init+0x110>)
 f0a:	2155      	movs	r1, #85	; 0x55
 f0c:	20aa      	movs	r0, #170	; 0xaa
  	PLLCFG = PLLCFG_MSEL | PLLCFG_PSEL;		// Ajustando o multiplicador e divisor do PLL
 f0e:	250e      	movs	r5, #14
  	while( !(SCS & SCS_OSCSTAT) );			// Espero at que o oscilador principal esteja pronto para uso como fonte de clock para o PLL
  	clksrcsel_oscMAIN(); 					// Habilita o oscilador MAIN para o sistema
  	#endif

  	pll_OFF(); 								// Desabilita PLL
  	PLLFEED = 0xAA;	PLLFEED = 0x55;			// Sequencia para validar as mudanas nos registradores PLLCON e PLLCFG
 f10:	6018      	str	r0, [r3, #0]
 f12:	6019      	str	r1, [r3, #0]
  	PLLCFG = PLLCFG_MSEL | PLLCFG_PSEL;		// Ajustando o multiplicador e divisor do PLL
 f14:	6025      	str	r5, [r4, #0]
  	PLLFEED = 0xAA;	PLLFEED = 0x55;			// Sequencia para validar as mudanas nos registradores PLLCON e PLLCFG
 f16:	6018      	str	r0, [r3, #0]
 f18:	6019      	str	r1, [r3, #0]
  	pll_ON();								// Habilita PLL
 f1a:	6814      	ldr	r4, [r2, #0]
 f1c:	f044 0401 	orr.w	r4, r4, #1
 f20:	6014      	str	r4, [r2, #0]
  	PLLFEED = 0xAA;	PLLFEED = 0x55;			// Sequencia para validar as mudanas nos registradores PLLCON e PLLCFG
 f22:	6018      	str	r0, [r3, #0]
 f24:	6019      	str	r1, [r3, #0]

  	while (!(PLLSTAT & PLLSTAT_LOCK));		// Espera que o PLL trave. No Skyeye no se usa
 f26:	492c      	ldr	r1, [pc, #176]	; (fd8 <arm_Init+0x114>)
 f28:	680b      	ldr	r3, [r1, #0]
 f2a:	015d      	lsls	r5, r3, #5
 f2c:	d5fc      	bpl.n	f28 <arm_Init+0x64>
  	#if defined(LPC1751) || defined(LPC1752)
  	pll_Connect();							// Conecta PLL
 f2e:	6813      	ldr	r3, [r2, #0]
 f30:	f043 0302 	orr.w	r3, r3, #2
 f34:	6013      	str	r3, [r2, #0]
  	PLLFEED = 0xAA;	PLLFEED = 0x55;			// Sequencia para validar as mudanas nos registradores PLLCON e PLLCFG
 f36:	4b27      	ldr	r3, [pc, #156]	; (fd4 <arm_Init+0x110>)
 f38:	22aa      	movs	r2, #170	; 0xaa
 f3a:	601a      	str	r2, [r3, #0]
 f3c:	2255      	movs	r2, #85	; 0x55
 f3e:	601a      	str	r2, [r3, #0]
  	while (!(PLLSTAT & PLLSTAT_PLLC));		// Espera que o PLL se conecte ao sistema
 f40:	4a25      	ldr	r2, [pc, #148]	; (fd8 <arm_Init+0x114>)
 f42:	6813      	ldr	r3, [r2, #0]
 f44:	019c      	lsls	r4, r3, #6
 f46:	d5fc      	bpl.n	f42 <arm_Init+0x7e>
  	#endif

  	#if defined(OSC_XTAL)
  	pll1_OFF(); 							// Desabilita PLL
 f48:	4a24      	ldr	r2, [pc, #144]	; (fdc <arm_Init+0x118>)
 f4a:	2300      	movs	r3, #0
 f4c:	6013      	str	r3, [r2, #0]
  	PLL1FEED = 0xAA;	PLL1FEED = 0x55;	// Sequencia para validar as mudanas nos registradores PLLCON e PLLCFG
  	PLL1CFG = PLL1CFG_MSEL | PLL1CFG_PSEL;	// Ajustando o multiplicador e divisor do PLL
 f4e:	4c24      	ldr	r4, [pc, #144]	; (fe0 <arm_Init+0x11c>)
  	while (!(PLLSTAT & PLLSTAT_PLLC));		// Espera que o PLL se conecte ao sistema
  	#endif

  	#if defined(OSC_XTAL)
  	pll1_OFF(); 							// Desabilita PLL
  	PLL1FEED = 0xAA;	PLL1FEED = 0x55;	// Sequencia para validar as mudanas nos registradores PLLCON e PLLCFG
 f50:	4b24      	ldr	r3, [pc, #144]	; (fe4 <arm_Init+0x120>)
 f52:	2155      	movs	r1, #85	; 0x55
 f54:	20aa      	movs	r0, #170	; 0xaa
  	PLL1CFG = PLL1CFG_MSEL | PLL1CFG_PSEL;	// Ajustando o multiplicador e divisor do PLL
 f56:	2507      	movs	r5, #7
  	while (!(PLLSTAT & PLLSTAT_PLLC));		// Espera que o PLL se conecte ao sistema
  	#endif

  	#if defined(OSC_XTAL)
  	pll1_OFF(); 							// Desabilita PLL
  	PLL1FEED = 0xAA;	PLL1FEED = 0x55;	// Sequencia para validar as mudanas nos registradores PLLCON e PLLCFG
 f58:	6018      	str	r0, [r3, #0]
 f5a:	6019      	str	r1, [r3, #0]
  	PLL1CFG = PLL1CFG_MSEL | PLL1CFG_PSEL;	// Ajustando o multiplicador e divisor do PLL
 f5c:	6025      	str	r5, [r4, #0]
  	PLL1FEED = 0xAA;	PLL1FEED = 0x55;	// Sequencia para validar as mudanas nos registradores PLLCON e PLLCFG
 f5e:	6018      	str	r0, [r3, #0]
 f60:	6019      	str	r1, [r3, #0]
  	pll1_ON();								// Habilita PLL
 f62:	6814      	ldr	r4, [r2, #0]
 f64:	f044 0401 	orr.w	r4, r4, #1
 f68:	6014      	str	r4, [r2, #0]
  	PLL1FEED = 0xAA;	PLL1FEED = 0x55;	// Sequencia para validar as mudanas nos registradores PLLCON e PLLCFG
 f6a:	6018      	str	r0, [r3, #0]
 f6c:	6019      	str	r1, [r3, #0]

  	while (!(PLL1STAT & PLL1STAT_LOCK));	// Espera que o PLL trave. No Skyeye no se usa
 f6e:	491e      	ldr	r1, [pc, #120]	; (fe8 <arm_Init+0x124>)
 f70:	680b      	ldr	r3, [r1, #0]
 f72:	0558      	lsls	r0, r3, #21
 f74:	d5fc      	bpl.n	f70 <arm_Init+0xac>
  	#if defined(LPC1751) || defined(LPC1752)
  	pll1_Connect();							// Conecta PLL
 f76:	6813      	ldr	r3, [r2, #0]
 f78:	f043 0302 	orr.w	r3, r3, #2
 f7c:	6013      	str	r3, [r2, #0]
  	PLL1FEED = 0xAA;	PLL1FEED = 0x55;	// Sequencia para validar as mudanas nos registradores PLLCON e PLLCFG
 f7e:	4b19      	ldr	r3, [pc, #100]	; (fe4 <arm_Init+0x120>)
 f80:	22aa      	movs	r2, #170	; 0xaa
 f82:	601a      	str	r2, [r3, #0]
 f84:	2255      	movs	r2, #85	; 0x55
 f86:	601a      	str	r2, [r3, #0]
	while (!(PLL1STAT & PLL1STAT_PLLC));	// Espera que o PLL se conecte ao sistema
 f88:	4a17      	ldr	r2, [pc, #92]	; (fe8 <arm_Init+0x124>)
 f8a:	6813      	ldr	r3, [r2, #0]
 f8c:	059b      	lsls	r3, r3, #22
 f8e:	d5fc      	bpl.n	f8a <arm_Init+0xc6>
  	#endif
  	usbksel_clkDiv(USBCLKDIV);				// Aplicar divisor obter o USBCLK do PLL1_OUT
 f90:	4b16      	ldr	r3, [pc, #88]	; (fec <arm_Init+0x128>)
 f92:	681a      	ldr	r2, [r3, #0]
 f94:	f022 020f 	bic.w	r2, r2, #15
 f98:	f042 0201 	orr.w	r2, r2, #1
 f9c:	601a      	str	r2, [r3, #0]
  	#endif

  	cclksel_clkDiv(CCLKDIV);				// Aplicar divisor obter o CCLK do PLL_OUT
 f9e:	f853 2c04 	ldr.w	r2, [r3, #-4]
 fa2:	f022 02ff 	bic.w	r2, r2, #255	; 0xff
 fa6:	f042 0202 	orr.w	r2, r2, #2
 faa:	f843 2c04 	str.w	r2, [r3, #-4]
		// Pclk roda 1/2 da velocidade do clock da CPU (Cclk)
	  	PCLKSEL  = 0xaaa2a2aa;
  		PCLKSEL1 = 0xa8aaa8aa;
	#elif ((CCLK / PCLK) == 4)
		// Pclk roda 1/4 da velocidade do clock da CPU (Cclk)
	  	PCLKSEL = 0x0;
 fae:	4a10      	ldr	r2, [pc, #64]	; (ff0 <arm_Init+0x12c>)
 fb0:	2300      	movs	r3, #0
 fb2:	6013      	str	r3, [r2, #0]
  		PCLKSEL1 = 0x0;
 fb4:	6053      	str	r3, [r2, #4]
	// O power boost (PBOOST)  ativado aps o reset, permitindo trabalhar com frequencia da CPU de at
	//	seu limite mximo. Vamos deixar desse modo, mas se usar gesto de economia de energia teremos
	//	que rever isto
	#if (FLASHTIM == FLASHTIM_AUTO)
		#if (CCLK >= 100000000)
		FLASHCFG = FLASHTIM_100MHZ | 0x3a; // definir a velocidade de acesso a flash (consulte _config_cpu_.h)
 fb6:	4b0f      	ldr	r3, [pc, #60]	; (ff4 <arm_Init+0x130>)
 fb8:	f244 023a 	movw	r2, #16442	; 0x403a
 fbc:	601a      	str	r2, [r3, #0]
 fbe:	bd30      	pop	{r4, r5, pc}
 fc0:	e000ed08 	.word	0xe000ed08
 fc4:	400fc0c4 	.word	0x400fc0c4
 fc8:	400fc1a0 	.word	0x400fc1a0
 fcc:	400fc080 	.word	0x400fc080
 fd0:	400fc084 	.word	0x400fc084
 fd4:	400fc08c 	.word	0x400fc08c
 fd8:	400fc088 	.word	0x400fc088
 fdc:	400fc0a0 	.word	0x400fc0a0
 fe0:	400fc0a4 	.word	0x400fc0a4
 fe4:	400fc0ac 	.word	0x400fc0ac
 fe8:	400fc0a8 	.word	0x400fc0a8
 fec:	400fc108 	.word	0x400fc108
 ff0:	400fc1a8 	.word	0x400fc1a8
 ff4:	400fc000 	.word	0x400fc000

Disassembly of section .text._start:

00000ff8 <_start>:
#endif


// ESTA FUNO  CHAMADA PELO VETOR DE INTERRUPO RESET
void _start (void);
void _start (void) {
     ff8:	b510      	push	{r4, lr}
	// DESABILITA TODAS AS INTERRUPES
	irq_Disable();
     ffa:	b672      	cpsid	i
	// -------------------------------------------------------------------------------------------------------------------------
	// CONFIGURA PROCESSADOR ARM
	// 	As configuraes do arm deve ser feita antes, isto porque em algumas configuraes abaixo
	//	 necessitam de delays para inicializaes baseadas na frequencia do processador
	// -------------------------------------------------------------------------------------------------------------------------
	arm_Init();
     ffc:	f7ff ff62 	bl	ec4 <arm_Init>
	// -------------------------------------------------------------------------------------------------------------------------
	#if defined(RUN_MODE1) || defined(RUN_MODE2) || defined (RUN_MODEBOOT1) || defined (RUN_MODEBOOT2)
	pSrc  = &_etext; 		// Captura o endereo final da seco .text e .rodata. Onde contm os valores da variveis inicializadas
	pDest = &_data;			// Captura o endereo inicial da rea de RAM da seco .data (variveis inicializadas)
	while(pDest < &_edata)	// Faa at o endereo final da rea de RAM da seco .data
		*pDest++ = *pSrc++;
    1000:	4c0a      	ldr	r4, [pc, #40]	; (102c <_start+0x34>)
	// ATRIBUI OS VALORES INICIAIS DAS VARIVEIS DA SECO .data
	// -------------------------------------------------------------------------------------------------------------------------
	#if defined(RUN_MODE1) || defined(RUN_MODE2) || defined (RUN_MODEBOOT1) || defined (RUN_MODEBOOT2)
	pSrc  = &_etext; 		// Captura o endereo final da seco .text e .rodata. Onde contm os valores da variveis inicializadas
	pDest = &_data;			// Captura o endereo inicial da rea de RAM da seco .data (variveis inicializadas)
	while(pDest < &_edata)	// Faa at o endereo final da rea de RAM da seco .data
    1002:	2300      	movs	r3, #0
#endif


// ESTA FUNO  CHAMADA PELO VETOR DE INTERRUPO RESET
void _start (void);
void _start (void) {
    1004:	4a0a      	ldr	r2, [pc, #40]	; (1030 <_start+0x38>)
	// ATRIBUI OS VALORES INICIAIS DAS VARIVEIS DA SECO .data
	// -------------------------------------------------------------------------------------------------------------------------
	#if defined(RUN_MODE1) || defined(RUN_MODE2) || defined (RUN_MODEBOOT1) || defined (RUN_MODEBOOT2)
	pSrc  = &_etext; 		// Captura o endereo final da seco .text e .rodata. Onde contm os valores da variveis inicializadas
	pDest = &_data;			// Captura o endereo inicial da rea de RAM da seco .data (variveis inicializadas)
	while(pDest < &_edata)	// Faa at o endereo final da rea de RAM da seco .data
    1006:	480b      	ldr	r0, [pc, #44]	; (1034 <_start+0x3c>)
    1008:	e002      	b.n	1010 <_start+0x18>
		*pDest++ = *pSrc++;
    100a:	5919      	ldr	r1, [r3, r4]
    100c:	5099      	str	r1, [r3, r2]
    100e:	3304      	adds	r3, #4
#endif


// ESTA FUNO  CHAMADA PELO VETOR DE INTERRUPO RESET
void _start (void);
void _start (void) {
    1010:	1899      	adds	r1, r3, r2
	// ATRIBUI OS VALORES INICIAIS DAS VARIVEIS DA SECO .data
	// -------------------------------------------------------------------------------------------------------------------------
	#if defined(RUN_MODE1) || defined(RUN_MODE2) || defined (RUN_MODEBOOT1) || defined (RUN_MODEBOOT2)
	pSrc  = &_etext; 		// Captura o endereo final da seco .text e .rodata. Onde contm os valores da variveis inicializadas
	pDest = &_data;			// Captura o endereo inicial da rea de RAM da seco .data (variveis inicializadas)
	while(pDest < &_edata)	// Faa at o endereo final da rea de RAM da seco .data
    1012:	4281      	cmp	r1, r0
    1014:	d3f9      	bcc.n	100a <_start+0x12>
    1016:	4b08      	ldr	r3, [pc, #32]	; (1038 <_start+0x40>)

	// -------------------------------------------------------------------------------------------------------------------------
	// LIMPA A REA DE RAM DAS VARIVEIS NO INICIALIZADAS
	// -------------------------------------------------------------------------------------------------------------------------
	pDest = &_bss; 			// Captura o endereo inicial da rea de RAM da seco .bss (variveis no inicializadas)
	while(pDest < &_ebss)	// Faa at o endereo final da rea de RAM da seco .bss
    1018:	4a08      	ldr	r2, [pc, #32]	; (103c <_start+0x44>)
		*pDest++ = 0;		// Limpa o endereo de memria
    101a:	2100      	movs	r1, #0
    101c:	e001      	b.n	1022 <_start+0x2a>
    101e:	f843 1b04 	str.w	r1, [r3], #4

	// -------------------------------------------------------------------------------------------------------------------------
	// LIMPA A REA DE RAM DAS VARIVEIS NO INICIALIZADAS
	// -------------------------------------------------------------------------------------------------------------------------
	pDest = &_bss; 			// Captura o endereo inicial da rea de RAM da seco .bss (variveis no inicializadas)
	while(pDest < &_ebss)	// Faa at o endereo final da rea de RAM da seco .bss
    1022:	4293      	cmp	r3, r2
    1024:	d3fb      	bcc.n	101e <_start+0x26>


	// -------------------------------------------------------------------------------------------------------------------------
	// CHAMA O PROGRAMA MAIN SEM PASSAGEM DE PARAMETROS
	// -------------------------------------------------------------------------------------------------------------------------
	main();
    1026:	f000 ffe9 	bl	1ffc <main>
    102a:	e7fe      	b.n	102a <_start+0x32>
    102c:	00003dd4 	.word	0x00003dd4
    1030:	10000000 	.word	0x10000000
    1034:	10000010 	.word	0x10000010
    1038:	10000010 	.word	0x10000010
    103c:	10000cc4 	.word	0x10000cc4

Disassembly of section .text.eeprom_ISR:

00001040 <eeprom_ISR>:
	plognp("vicErr pwm0");
	#endif
	if (vicerr_Functions) vicerr_Functions(49);
	while(1);
}
void eeprom_ISR (void) {
    1040:	b508      	push	{r3, lr}
	#if (VICERR_USE_DEBUG == pdON)
	plognp("vicErr eeprom");
    1042:	2002      	movs	r0, #2
    1044:	4904      	ldr	r1, [pc, #16]	; (1058 <eeprom_ISR+0x18>)
    1046:	f001 fe3b 	bl	2cc0 <rprintf>
	#endif
	if (vicerr_Functions) vicerr_Functions(50);
    104a:	4b04      	ldr	r3, [pc, #16]	; (105c <eeprom_ISR+0x1c>)
    104c:	681a      	ldr	r2, [r3, #0]
    104e:	b112      	cbz	r2, 1056 <eeprom_ISR+0x16>
    1050:	681b      	ldr	r3, [r3, #0]
    1052:	2032      	movs	r0, #50	; 0x32
    1054:	4798      	blx	r3
    1056:	e7fe      	b.n	1056 <eeprom_ISR+0x16>
    1058:	0000378c 	.word	0x0000378c
    105c:	10000160 	.word	0x10000160

Disassembly of section .text.pwm0_ISR:

00001060 <pwm0_ISR>:
	plognp("vicErr gpio");
	#endif
	if (vicerr_Functions) vicerr_Functions(48);
	while(1);
}
void pwm0_ISR (void) {
    1060:	b508      	push	{r3, lr}
	#if (VICERR_USE_DEBUG == pdON)
	plognp("vicErr pwm0");
    1062:	2002      	movs	r0, #2
    1064:	4904      	ldr	r1, [pc, #16]	; (1078 <pwm0_ISR+0x18>)
    1066:	f001 fe2b 	bl	2cc0 <rprintf>
	#endif
	if (vicerr_Functions) vicerr_Functions(49);
    106a:	4b04      	ldr	r3, [pc, #16]	; (107c <pwm0_ISR+0x1c>)
    106c:	681a      	ldr	r2, [r3, #0]
    106e:	b112      	cbz	r2, 1076 <pwm0_ISR+0x16>
    1070:	681b      	ldr	r3, [r3, #0]
    1072:	2031      	movs	r0, #49	; 0x31
    1074:	4798      	blx	r3
    1076:	e7fe      	b.n	1076 <pwm0_ISR+0x16>
    1078:	0000379a 	.word	0x0000379a
    107c:	10000160 	.word	0x10000160

Disassembly of section .text.gpio_ISR:

00001080 <gpio_ISR>:
	plognp("vicErr lcd");
	#endif
	if (vicerr_Functions) vicerr_Functions(47);
	while(1);
}
void gpio_ISR (void) {
    1080:	b508      	push	{r3, lr}
	#if (VICERR_USE_DEBUG == pdON)
	plognp("vicErr gpio");
    1082:	2002      	movs	r0, #2
    1084:	4904      	ldr	r1, [pc, #16]	; (1098 <gpio_ISR+0x18>)
    1086:	f001 fe1b 	bl	2cc0 <rprintf>
	#endif
	if (vicerr_Functions) vicerr_Functions(48);
    108a:	4b04      	ldr	r3, [pc, #16]	; (109c <gpio_ISR+0x1c>)
    108c:	681a      	ldr	r2, [r3, #0]
    108e:	b112      	cbz	r2, 1096 <gpio_ISR+0x16>
    1090:	681b      	ldr	r3, [r3, #0]
    1092:	2030      	movs	r0, #48	; 0x30
    1094:	4798      	blx	r3
    1096:	e7fe      	b.n	1096 <gpio_ISR+0x16>
    1098:	000037a6 	.word	0x000037a6
    109c:	10000160 	.word	0x10000160

Disassembly of section .text.lcd_ISR:

000010a0 <lcd_ISR>:
	plognp("vicErr ssp2");
	#endif
	if (vicerr_Functions) vicerr_Functions(46);
	while(1);
}
void lcd_ISR (void) {
    10a0:	b508      	push	{r3, lr}
	#if (VICERR_USE_DEBUG == pdON)
	plognp("vicErr lcd");
    10a2:	2002      	movs	r0, #2
    10a4:	4904      	ldr	r1, [pc, #16]	; (10b8 <lcd_ISR+0x18>)
    10a6:	f001 fe0b 	bl	2cc0 <rprintf>
	#endif
	if (vicerr_Functions) vicerr_Functions(47);
    10aa:	4b04      	ldr	r3, [pc, #16]	; (10bc <lcd_ISR+0x1c>)
    10ac:	681a      	ldr	r2, [r3, #0]
    10ae:	b112      	cbz	r2, 10b6 <lcd_ISR+0x16>
    10b0:	681b      	ldr	r3, [r3, #0]
    10b2:	202f      	movs	r0, #47	; 0x2f
    10b4:	4798      	blx	r3
    10b6:	e7fe      	b.n	10b6 <lcd_ISR+0x16>
    10b8:	000037b2 	.word	0x000037b2
    10bc:	10000160 	.word	0x10000160

Disassembly of section .text.ssp2_ISR:

000010c0 <ssp2_ISR>:
	plognp("vicErr uart4");
	#endif
	if (vicerr_Functions) vicerr_Functions(45);
	while(1);
}
void ssp2_ISR (void) {
    10c0:	b508      	push	{r3, lr}
	#if (VICERR_USE_DEBUG == pdON)
	plognp("vicErr ssp2");
    10c2:	2002      	movs	r0, #2
    10c4:	4904      	ldr	r1, [pc, #16]	; (10d8 <ssp2_ISR+0x18>)
    10c6:	f001 fdfb 	bl	2cc0 <rprintf>
	#endif
	if (vicerr_Functions) vicerr_Functions(46);
    10ca:	4b04      	ldr	r3, [pc, #16]	; (10dc <ssp2_ISR+0x1c>)
    10cc:	681a      	ldr	r2, [r3, #0]
    10ce:	b112      	cbz	r2, 10d6 <ssp2_ISR+0x16>
    10d0:	681b      	ldr	r3, [r3, #0]
    10d2:	202e      	movs	r0, #46	; 0x2e
    10d4:	4798      	blx	r3
    10d6:	e7fe      	b.n	10d6 <ssp2_ISR+0x16>
    10d8:	000037bd 	.word	0x000037bd
    10dc:	10000160 	.word	0x10000160

Disassembly of section .text.uart4_ISR:

000010e0 <uart4_ISR>:
	plognp("vicErr CAN ACT");
	#endif
	if (vicerr_Functions) vicerr_Functions(44);
	while(1);
}
void uart4_ISR (void) {
    10e0:	b508      	push	{r3, lr}
	#if (VICERR_USE_DEBUG == pdON)
	plognp("vicErr uart4");
    10e2:	2002      	movs	r0, #2
    10e4:	4904      	ldr	r1, [pc, #16]	; (10f8 <uart4_ISR+0x18>)
    10e6:	f001 fdeb 	bl	2cc0 <rprintf>
	#endif
	if (vicerr_Functions) vicerr_Functions(45);
    10ea:	4b04      	ldr	r3, [pc, #16]	; (10fc <uart4_ISR+0x1c>)
    10ec:	681a      	ldr	r2, [r3, #0]
    10ee:	b112      	cbz	r2, 10f6 <uart4_ISR+0x16>
    10f0:	681b      	ldr	r3, [r3, #0]
    10f2:	202d      	movs	r0, #45	; 0x2d
    10f4:	4798      	blx	r3
    10f6:	e7fe      	b.n	10f6 <uart4_ISR+0x16>
    10f8:	000037c9 	.word	0x000037c9
    10fc:	10000160 	.word	0x10000160

Disassembly of section .text.canAct_ISR:

00001100 <canAct_ISR>:
	plognp("vicErr USB ACT");
	#endif
	if (vicerr_Functions) vicerr_Functions(43);
	while(1);
}
void canAct_ISR (void) {
    1100:	b508      	push	{r3, lr}
	#if (VICERR_USE_DEBUG == pdON)
	plognp("vicErr CAN ACT");
    1102:	2002      	movs	r0, #2
    1104:	4904      	ldr	r1, [pc, #16]	; (1118 <canAct_ISR+0x18>)
    1106:	f001 fddb 	bl	2cc0 <rprintf>
	#endif
	if (vicerr_Functions) vicerr_Functions(44);
    110a:	4b04      	ldr	r3, [pc, #16]	; (111c <canAct_ISR+0x1c>)
    110c:	681a      	ldr	r2, [r3, #0]
    110e:	b112      	cbz	r2, 1116 <canAct_ISR+0x16>
    1110:	681b      	ldr	r3, [r3, #0]
    1112:	202c      	movs	r0, #44	; 0x2c
    1114:	4798      	blx	r3
    1116:	e7fe      	b.n	1116 <canAct_ISR+0x16>
    1118:	000037d6 	.word	0x000037d6
    111c:	10000160 	.word	0x10000160

Disassembly of section .text.usbAct_ISR:

00001120 <usbAct_ISR>:
	#endif
	if (vicerr_Functions) vicerr_Functions(42);
	while(1);
}

void usbAct_ISR (void) {
    1120:	b508      	push	{r3, lr}
	#if (VICERR_USE_DEBUG == pdON)
	plognp("vicErr USB ACT");
    1122:	2002      	movs	r0, #2
    1124:	4904      	ldr	r1, [pc, #16]	; (1138 <usbAct_ISR+0x18>)
    1126:	f001 fdcb 	bl	2cc0 <rprintf>
	#endif
	if (vicerr_Functions) vicerr_Functions(43);
    112a:	4b04      	ldr	r3, [pc, #16]	; (113c <usbAct_ISR+0x1c>)
    112c:	681a      	ldr	r2, [r3, #0]
    112e:	b112      	cbz	r2, 1136 <usbAct_ISR+0x16>
    1130:	681b      	ldr	r3, [r3, #0]
    1132:	202b      	movs	r0, #43	; 0x2b
    1134:	4798      	blx	r3
    1136:	e7fe      	b.n	1136 <usbAct_ISR+0x16>
    1138:	000037e5 	.word	0x000037e5
    113c:	10000160 	.word	0x10000160

Disassembly of section .text.pll1_ISR:

00001140 <pll1_ISR>:
	#endif
	if (vicerr_Functions) vicerr_Functions(41);
	while(1);
}

void pll1_ISR (void) {
    1140:	b508      	push	{r3, lr}
	#if (VICERR_USE_DEBUG == pdON)
	plognp("vicErr pll1");
    1142:	2002      	movs	r0, #2
    1144:	4904      	ldr	r1, [pc, #16]	; (1158 <pll1_ISR+0x18>)
    1146:	f001 fdbb 	bl	2cc0 <rprintf>
	#endif
	if (vicerr_Functions) vicerr_Functions(42);
    114a:	4b04      	ldr	r3, [pc, #16]	; (115c <pll1_ISR+0x1c>)
    114c:	681a      	ldr	r2, [r3, #0]
    114e:	b112      	cbz	r2, 1156 <pll1_ISR+0x16>
    1150:	681b      	ldr	r3, [r3, #0]
    1152:	202a      	movs	r0, #42	; 0x2a
    1154:	4798      	blx	r3
    1156:	e7fe      	b.n	1156 <pll1_ISR+0x16>
    1158:	000037f4 	.word	0x000037f4
    115c:	10000160 	.word	0x10000160

Disassembly of section .text.qei_ISR:

00001160 <qei_ISR>:
	plognp("vicErr mcpwm");
	#endif
	if (vicerr_Functions) vicerr_Functions(40);
	while(1);
}
void qei_ISR (void) {
    1160:	b508      	push	{r3, lr}
	#if (VICERR_USE_DEBUG == pdON)
	plognp("vicErr qei");
    1162:	2002      	movs	r0, #2
    1164:	4904      	ldr	r1, [pc, #16]	; (1178 <qei_ISR+0x18>)
    1166:	f001 fdab 	bl	2cc0 <rprintf>
	#endif
	if (vicerr_Functions) vicerr_Functions(41);
    116a:	4b04      	ldr	r3, [pc, #16]	; (117c <qei_ISR+0x1c>)
    116c:	681a      	ldr	r2, [r3, #0]
    116e:	b112      	cbz	r2, 1176 <qei_ISR+0x16>
    1170:	681b      	ldr	r3, [r3, #0]
    1172:	2029      	movs	r0, #41	; 0x29
    1174:	4798      	blx	r3
    1176:	e7fe      	b.n	1176 <qei_ISR+0x16>
    1178:	00003800 	.word	0x00003800
    117c:	10000160 	.word	0x10000160

Disassembly of section .text.mcpwm_ISR:

00001180 <mcpwm_ISR>:
	plognp("vicErr rit");
	#endif
	if (vicerr_Functions) vicerr_Functions(39);
	while(1);
}
void mcpwm_ISR (void) {
    1180:	b508      	push	{r3, lr}
	#if (VICERR_USE_DEBUG == pdON)
	plognp("vicErr mcpwm");
    1182:	2002      	movs	r0, #2
    1184:	4904      	ldr	r1, [pc, #16]	; (1198 <mcpwm_ISR+0x18>)
    1186:	f001 fd9b 	bl	2cc0 <rprintf>
	#endif
	if (vicerr_Functions) vicerr_Functions(40);
    118a:	4b04      	ldr	r3, [pc, #16]	; (119c <mcpwm_ISR+0x1c>)
    118c:	681a      	ldr	r2, [r3, #0]
    118e:	b112      	cbz	r2, 1196 <mcpwm_ISR+0x16>
    1190:	681b      	ldr	r3, [r3, #0]
    1192:	2028      	movs	r0, #40	; 0x28
    1194:	4798      	blx	r3
    1196:	e7fe      	b.n	1196 <mcpwm_ISR+0x16>
    1198:	0000380b 	.word	0x0000380b
    119c:	10000160 	.word	0x10000160

Disassembly of section .text.rit_ISR:

000011a0 <rit_ISR>:
	plognp("vicErr enet");
	#endif
	if (vicerr_Functions) vicerr_Functions(38);
	while(1);
}
void rit_ISR (void) {
    11a0:	b508      	push	{r3, lr}
	#if (VICERR_USE_DEBUG == pdON)
	plognp("vicErr rit");
    11a2:	2002      	movs	r0, #2
    11a4:	4904      	ldr	r1, [pc, #16]	; (11b8 <rit_ISR+0x18>)
    11a6:	f001 fd8b 	bl	2cc0 <rprintf>
	#endif
	if (vicerr_Functions) vicerr_Functions(39);
    11aa:	4b04      	ldr	r3, [pc, #16]	; (11bc <rit_ISR+0x1c>)
    11ac:	681a      	ldr	r2, [r3, #0]
    11ae:	b112      	cbz	r2, 11b6 <rit_ISR+0x16>
    11b0:	681b      	ldr	r3, [r3, #0]
    11b2:	2027      	movs	r0, #39	; 0x27
    11b4:	4798      	blx	r3
    11b6:	e7fe      	b.n	11b6 <rit_ISR+0x16>
    11b8:	00003818 	.word	0x00003818
    11bc:	10000160 	.word	0x10000160

Disassembly of section .text.enet_ISR:

000011c0 <enet_ISR>:
	plognp("vicErr i2s");
	#endif
	if (vicerr_Functions) vicerr_Functions(37);
	while(1);
}
void enet_ISR (void) {
    11c0:	b508      	push	{r3, lr}
	#if (VICERR_USE_DEBUG == pdON)
	plognp("vicErr enet");
    11c2:	2002      	movs	r0, #2
    11c4:	4904      	ldr	r1, [pc, #16]	; (11d8 <enet_ISR+0x18>)
    11c6:	f001 fd7b 	bl	2cc0 <rprintf>
	#endif
	if (vicerr_Functions) vicerr_Functions(38);
    11ca:	4b04      	ldr	r3, [pc, #16]	; (11dc <enet_ISR+0x1c>)
    11cc:	681a      	ldr	r2, [r3, #0]
    11ce:	b112      	cbz	r2, 11d6 <enet_ISR+0x16>
    11d0:	681b      	ldr	r3, [r3, #0]
    11d2:	2026      	movs	r0, #38	; 0x26
    11d4:	4798      	blx	r3
    11d6:	e7fe      	b.n	11d6 <enet_ISR+0x16>
    11d8:	00003823 	.word	0x00003823
    11dc:	10000160 	.word	0x10000160

Disassembly of section .text.i2s_ISR:

000011e0 <i2s_ISR>:
	plognp("vicErr dma");
	#endif
	if (vicerr_Functions) vicerr_Functions(36);
	while(1);
}
void i2s_ISR (void) {
    11e0:	b508      	push	{r3, lr}
	#if (VICERR_USE_DEBUG == pdON)
	plognp("vicErr i2s");
    11e2:	2002      	movs	r0, #2
    11e4:	4904      	ldr	r1, [pc, #16]	; (11f8 <i2s_ISR+0x18>)
    11e6:	f001 fd6b 	bl	2cc0 <rprintf>
	#endif
	if (vicerr_Functions) vicerr_Functions(37);
    11ea:	4b04      	ldr	r3, [pc, #16]	; (11fc <i2s_ISR+0x1c>)
    11ec:	681a      	ldr	r2, [r3, #0]
    11ee:	b112      	cbz	r2, 11f6 <i2s_ISR+0x16>
    11f0:	681b      	ldr	r3, [r3, #0]
    11f2:	2025      	movs	r0, #37	; 0x25
    11f4:	4798      	blx	r3
    11f6:	e7fe      	b.n	11f6 <i2s_ISR+0x16>
    11f8:	0000382f 	.word	0x0000382f
    11fc:	10000160 	.word	0x10000160

Disassembly of section .text.dma_ISR:

00001200 <dma_ISR>:
	plognp("vicErr can");
	#endif
	if (vicerr_Functions) vicerr_Functions(35);
	while(1);
}
void dma_ISR (void) {
    1200:	b508      	push	{r3, lr}
	#if (VICERR_USE_DEBUG == pdON)
	plognp("vicErr dma");
    1202:	2002      	movs	r0, #2
    1204:	4904      	ldr	r1, [pc, #16]	; (1218 <dma_ISR+0x18>)
    1206:	f001 fd5b 	bl	2cc0 <rprintf>
	#endif
	if (vicerr_Functions) vicerr_Functions(36);
    120a:	4b04      	ldr	r3, [pc, #16]	; (121c <dma_ISR+0x1c>)
    120c:	681a      	ldr	r2, [r3, #0]
    120e:	b112      	cbz	r2, 1216 <dma_ISR+0x16>
    1210:	681b      	ldr	r3, [r3, #0]
    1212:	2024      	movs	r0, #36	; 0x24
    1214:	4798      	blx	r3
    1216:	e7fe      	b.n	1216 <dma_ISR+0x16>
    1218:	0000383a 	.word	0x0000383a
    121c:	10000160 	.word	0x10000160

Disassembly of section .text.can_ISR:

00001220 <can_ISR>:
	plognp("vicErr usb");
	#endif
	if (vicerr_Functions) vicerr_Functions(34);
	while(1);
}
void can_ISR (void) {
    1220:	b508      	push	{r3, lr}
	#if (VICERR_USE_DEBUG == pdON)
	plognp("vicErr can");
    1222:	2002      	movs	r0, #2
    1224:	4904      	ldr	r1, [pc, #16]	; (1238 <can_ISR+0x18>)
    1226:	f001 fd4b 	bl	2cc0 <rprintf>
	#endif
	if (vicerr_Functions) vicerr_Functions(35);
    122a:	4b04      	ldr	r3, [pc, #16]	; (123c <can_ISR+0x1c>)
    122c:	681a      	ldr	r2, [r3, #0]
    122e:	b112      	cbz	r2, 1236 <can_ISR+0x16>
    1230:	681b      	ldr	r3, [r3, #0]
    1232:	2023      	movs	r0, #35	; 0x23
    1234:	4798      	blx	r3
    1236:	e7fe      	b.n	1236 <can_ISR+0x16>
    1238:	00003845 	.word	0x00003845
    123c:	10000160 	.word	0x10000160

Disassembly of section .text.usbHost_ISR:

00001240 <usbHost_ISR>:
	plognp("vicErr bod");
	#endif
	if (vicerr_Functions) vicerr_Functions(33);
	while(1);
}
void usbHost_ISR (void) {
    1240:	b508      	push	{r3, lr}
	#if (VICERR_USE_DEBUG == pdON)
	plognp("vicErr usb");
    1242:	2002      	movs	r0, #2
    1244:	4904      	ldr	r1, [pc, #16]	; (1258 <usbHost_ISR+0x18>)
    1246:	f001 fd3b 	bl	2cc0 <rprintf>
	#endif
	if (vicerr_Functions) vicerr_Functions(34);
    124a:	4b04      	ldr	r3, [pc, #16]	; (125c <usbHost_ISR+0x1c>)
    124c:	681a      	ldr	r2, [r3, #0]
    124e:	b112      	cbz	r2, 1256 <usbHost_ISR+0x16>
    1250:	681b      	ldr	r3, [r3, #0]
    1252:	2022      	movs	r0, #34	; 0x22
    1254:	4798      	blx	r3
    1256:	e7fe      	b.n	1256 <usbHost_ISR+0x16>
    1258:	00003850 	.word	0x00003850
    125c:	10000160 	.word	0x10000160

Disassembly of section .text.bod_ISR:

00001260 <bod_ISR>:
	plognp("vicErr adc");
	#endif
	if (vicerr_Functions) vicerr_Functions(32);
	while(1);
}
void bod_ISR (void) {
    1260:	b508      	push	{r3, lr}
	#if (VICERR_USE_DEBUG == pdON)
	plognp("vicErr bod");
    1262:	2002      	movs	r0, #2
    1264:	4904      	ldr	r1, [pc, #16]	; (1278 <bod_ISR+0x18>)
    1266:	f001 fd2b 	bl	2cc0 <rprintf>
	#endif
	if (vicerr_Functions) vicerr_Functions(33);
    126a:	4b04      	ldr	r3, [pc, #16]	; (127c <bod_ISR+0x1c>)
    126c:	681a      	ldr	r2, [r3, #0]
    126e:	b112      	cbz	r2, 1276 <bod_ISR+0x16>
    1270:	681b      	ldr	r3, [r3, #0]
    1272:	2021      	movs	r0, #33	; 0x21
    1274:	4798      	blx	r3
    1276:	e7fe      	b.n	1276 <bod_ISR+0x16>
    1278:	0000385b 	.word	0x0000385b
    127c:	10000160 	.word	0x10000160

Disassembly of section .text.adc_ISR:

00001280 <adc_ISR>:
	plognp("vicErr eint3");
	#endif
	if (vicerr_Functions) vicerr_Functions(31);
	while(1);
}
void adc_ISR (void) {
    1280:	b508      	push	{r3, lr}
	#if (VICERR_USE_DEBUG == pdON)
	plognp("vicErr adc");
    1282:	2002      	movs	r0, #2
    1284:	4904      	ldr	r1, [pc, #16]	; (1298 <adc_ISR+0x18>)
    1286:	f001 fd1b 	bl	2cc0 <rprintf>
	#endif
	if (vicerr_Functions) vicerr_Functions(32);
    128a:	4b04      	ldr	r3, [pc, #16]	; (129c <adc_ISR+0x1c>)
    128c:	681a      	ldr	r2, [r3, #0]
    128e:	b112      	cbz	r2, 1296 <adc_ISR+0x16>
    1290:	681b      	ldr	r3, [r3, #0]
    1292:	2020      	movs	r0, #32
    1294:	4798      	blx	r3
    1296:	e7fe      	b.n	1296 <adc_ISR+0x16>
    1298:	00003866 	.word	0x00003866
    129c:	10000160 	.word	0x10000160

Disassembly of section .text.eint3_ISR:

000012a0 <eint3_ISR>:
	plognp("vicErr eint2");
	#endif
	if (vicerr_Functions) vicerr_Functions(30);
	while(1);
}
void eint3_ISR (void) {
    12a0:	b508      	push	{r3, lr}
	#if (VICERR_USE_DEBUG == pdON)
	plognp("vicErr eint3");
    12a2:	2002      	movs	r0, #2
    12a4:	4904      	ldr	r1, [pc, #16]	; (12b8 <eint3_ISR+0x18>)
    12a6:	f001 fd0b 	bl	2cc0 <rprintf>
	#endif
	if (vicerr_Functions) vicerr_Functions(31);
    12aa:	4b04      	ldr	r3, [pc, #16]	; (12bc <eint3_ISR+0x1c>)
    12ac:	681a      	ldr	r2, [r3, #0]
    12ae:	b112      	cbz	r2, 12b6 <eint3_ISR+0x16>
    12b0:	681b      	ldr	r3, [r3, #0]
    12b2:	201f      	movs	r0, #31
    12b4:	4798      	blx	r3
    12b6:	e7fe      	b.n	12b6 <eint3_ISR+0x16>
    12b8:	00003871 	.word	0x00003871
    12bc:	10000160 	.word	0x10000160

Disassembly of section .text.eint2_ISR:

000012c0 <eint2_ISR>:
	plognp("vicErr eint1");
	#endif
	if (vicerr_Functions) vicerr_Functions(29);
	while(1);
}
void eint2_ISR (void) {
    12c0:	b508      	push	{r3, lr}
	#if (VICERR_USE_DEBUG == pdON)
	plognp("vicErr eint2");
    12c2:	2002      	movs	r0, #2
    12c4:	4904      	ldr	r1, [pc, #16]	; (12d8 <eint2_ISR+0x18>)
    12c6:	f001 fcfb 	bl	2cc0 <rprintf>
	#endif
	if (vicerr_Functions) vicerr_Functions(30);
    12ca:	4b04      	ldr	r3, [pc, #16]	; (12dc <eint2_ISR+0x1c>)
    12cc:	681a      	ldr	r2, [r3, #0]
    12ce:	b112      	cbz	r2, 12d6 <eint2_ISR+0x16>
    12d0:	681b      	ldr	r3, [r3, #0]
    12d2:	201e      	movs	r0, #30
    12d4:	4798      	blx	r3
    12d6:	e7fe      	b.n	12d6 <eint2_ISR+0x16>
    12d8:	0000387e 	.word	0x0000387e
    12dc:	10000160 	.word	0x10000160

Disassembly of section .text.eint1_ISR:

000012e0 <eint1_ISR>:
	plognp("vicErr eint0");
	#endif
	if (vicerr_Functions) vicerr_Functions(28);
	while(1);
}
void eint1_ISR (void) {
    12e0:	b508      	push	{r3, lr}
	#if (VICERR_USE_DEBUG == pdON)
	plognp("vicErr eint1");
    12e2:	2002      	movs	r0, #2
    12e4:	4904      	ldr	r1, [pc, #16]	; (12f8 <eint1_ISR+0x18>)
    12e6:	f001 fceb 	bl	2cc0 <rprintf>
	#endif
	if (vicerr_Functions) vicerr_Functions(29);
    12ea:	4b04      	ldr	r3, [pc, #16]	; (12fc <eint1_ISR+0x1c>)
    12ec:	681a      	ldr	r2, [r3, #0]
    12ee:	b112      	cbz	r2, 12f6 <eint1_ISR+0x16>
    12f0:	681b      	ldr	r3, [r3, #0]
    12f2:	201d      	movs	r0, #29
    12f4:	4798      	blx	r3
    12f6:	e7fe      	b.n	12f6 <eint1_ISR+0x16>
    12f8:	0000388b 	.word	0x0000388b
    12fc:	10000160 	.word	0x10000160

Disassembly of section .text.eint0_ISR:

00001300 <eint0_ISR>:
	plognp("vicErr ");
	#endif
	if (vicerr_Functions) vicerr_Functions(27);
	while(1);
}
void eint0_ISR (void) {
    1300:	b508      	push	{r3, lr}
#if (VICERR_USE_DEBUG == pdON)
	plognp("vicErr eint0");
    1302:	2002      	movs	r0, #2
    1304:	4904      	ldr	r1, [pc, #16]	; (1318 <eint0_ISR+0x18>)
    1306:	f001 fcdb 	bl	2cc0 <rprintf>
	#endif
	if (vicerr_Functions) vicerr_Functions(28);
    130a:	4b04      	ldr	r3, [pc, #16]	; (131c <eint0_ISR+0x1c>)
    130c:	681a      	ldr	r2, [r3, #0]
    130e:	b112      	cbz	r2, 1316 <eint0_ISR+0x16>
    1310:	681b      	ldr	r3, [r3, #0]
    1312:	201c      	movs	r0, #28
    1314:	4798      	blx	r3
    1316:	e7fe      	b.n	1316 <eint0_ISR+0x16>
    1318:	00003898 	.word	0x00003898
    131c:	10000160 	.word	0x10000160

Disassembly of section .text.rtc_ISR:

00001320 <rtc_ISR>:
	plognp("vicErr pll0");
	#endif
	if (vicerr_Functions) vicerr_Functions(26);
	while(1);
}
void rtc_ISR (void) {
    1320:	b508      	push	{r3, lr}
	#if (VICERR_USE_DEBUG == pdON)
	plognp("vicErr ");
    1322:	2002      	movs	r0, #2
    1324:	4904      	ldr	r1, [pc, #16]	; (1338 <rtc_ISR+0x18>)
    1326:	f001 fccb 	bl	2cc0 <rprintf>
	#endif
	if (vicerr_Functions) vicerr_Functions(27);
    132a:	4b04      	ldr	r3, [pc, #16]	; (133c <rtc_ISR+0x1c>)
    132c:	681a      	ldr	r2, [r3, #0]
    132e:	b112      	cbz	r2, 1336 <rtc_ISR+0x16>
    1330:	681b      	ldr	r3, [r3, #0]
    1332:	201b      	movs	r0, #27
    1334:	4798      	blx	r3
    1336:	e7fe      	b.n	1336 <rtc_ISR+0x16>
    1338:	000038a5 	.word	0x000038a5
    133c:	10000160 	.word	0x10000160

Disassembly of section .text.pll0_ISR:

00001340 <pll0_ISR>:
	plognp("vicErr spp1");
	#endif
	if (vicerr_Functions) vicerr_Functions(25);
	while(1);
}
void pll0_ISR (void) {
    1340:	b508      	push	{r3, lr}
	#if (VICERR_USE_DEBUG == pdON)
	plognp("vicErr pll0");
    1342:	2002      	movs	r0, #2
    1344:	4904      	ldr	r1, [pc, #16]	; (1358 <pll0_ISR+0x18>)
    1346:	f001 fcbb 	bl	2cc0 <rprintf>
	#endif
	if (vicerr_Functions) vicerr_Functions(26);
    134a:	4b04      	ldr	r3, [pc, #16]	; (135c <pll0_ISR+0x1c>)
    134c:	681a      	ldr	r2, [r3, #0]
    134e:	b112      	cbz	r2, 1356 <pll0_ISR+0x16>
    1350:	681b      	ldr	r3, [r3, #0]
    1352:	201a      	movs	r0, #26
    1354:	4798      	blx	r3
    1356:	e7fe      	b.n	1356 <pll0_ISR+0x16>
    1358:	000038ad 	.word	0x000038ad
    135c:	10000160 	.word	0x10000160

Disassembly of section .text.ssp1_ISR:

00001360 <ssp1_ISR>:
	plognp("vicErr spp0");
	#endif
	if (vicerr_Functions) vicerr_Functions(24);
	while(1);
}
void ssp1_ISR (void) {
    1360:	b508      	push	{r3, lr}
	#if (VICERR_USE_DEBUG == pdON)
	plognp("vicErr spp1");
    1362:	2002      	movs	r0, #2
    1364:	4904      	ldr	r1, [pc, #16]	; (1378 <ssp1_ISR+0x18>)
    1366:	f001 fcab 	bl	2cc0 <rprintf>
	#endif
	if (vicerr_Functions) vicerr_Functions(25);
    136a:	4b04      	ldr	r3, [pc, #16]	; (137c <ssp1_ISR+0x1c>)
    136c:	681a      	ldr	r2, [r3, #0]
    136e:	b112      	cbz	r2, 1376 <ssp1_ISR+0x16>
    1370:	681b      	ldr	r3, [r3, #0]
    1372:	2019      	movs	r0, #25
    1374:	4798      	blx	r3
    1376:	e7fe      	b.n	1376 <ssp1_ISR+0x16>
    1378:	000038b9 	.word	0x000038b9
    137c:	10000160 	.word	0x10000160

Disassembly of section .text.ssp0_ISR:

00001380 <ssp0_ISR>:
	plognp("vicErr spi");
	#endif
	if (vicerr_Functions) vicerr_Functions(23);
	while(1);
}
void ssp0_ISR (void) {
    1380:	b508      	push	{r3, lr}
	#if (VICERR_USE_DEBUG == pdON)
	plognp("vicErr spp0");
    1382:	2002      	movs	r0, #2
    1384:	4904      	ldr	r1, [pc, #16]	; (1398 <ssp0_ISR+0x18>)
    1386:	f001 fc9b 	bl	2cc0 <rprintf>
	#endif
	if (vicerr_Functions) vicerr_Functions(24);
    138a:	4b04      	ldr	r3, [pc, #16]	; (139c <ssp0_ISR+0x1c>)
    138c:	681a      	ldr	r2, [r3, #0]
    138e:	b112      	cbz	r2, 1396 <ssp0_ISR+0x16>
    1390:	681b      	ldr	r3, [r3, #0]
    1392:	2018      	movs	r0, #24
    1394:	4798      	blx	r3
    1396:	e7fe      	b.n	1396 <ssp0_ISR+0x16>
    1398:	000038c5 	.word	0x000038c5
    139c:	10000160 	.word	0x10000160

Disassembly of section .text.spi_ISR:

000013a0 <spi_ISR>:
	plognp("vicErr i2c2");
	#endif
	if (vicerr_Functions) vicerr_Functions(22);
	while(1);
}
void spi_ISR (void) {
    13a0:	b508      	push	{r3, lr}
	#if (VICERR_USE_DEBUG == pdON)
	plognp("vicErr spi");
    13a2:	2002      	movs	r0, #2
    13a4:	4904      	ldr	r1, [pc, #16]	; (13b8 <spi_ISR+0x18>)
    13a6:	f001 fc8b 	bl	2cc0 <rprintf>
	#endif
	if (vicerr_Functions) vicerr_Functions(23);
    13aa:	4b04      	ldr	r3, [pc, #16]	; (13bc <spi_ISR+0x1c>)
    13ac:	681a      	ldr	r2, [r3, #0]
    13ae:	b112      	cbz	r2, 13b6 <spi_ISR+0x16>
    13b0:	681b      	ldr	r3, [r3, #0]
    13b2:	2017      	movs	r0, #23
    13b4:	4798      	blx	r3
    13b6:	e7fe      	b.n	13b6 <spi_ISR+0x16>
    13b8:	000038d1 	.word	0x000038d1
    13bc:	10000160 	.word	0x10000160

Disassembly of section .text.i2c2_ISR:

000013c0 <i2c2_ISR>:
	plognp("vicErr i2c1");
	#endif
	if (vicerr_Functions) vicerr_Functions(21);
	while(1);
}
void i2c2_ISR (void) {
    13c0:	b508      	push	{r3, lr}
	#if (VICERR_USE_DEBUG == pdON)
	plognp("vicErr i2c2");
    13c2:	2002      	movs	r0, #2
    13c4:	4904      	ldr	r1, [pc, #16]	; (13d8 <i2c2_ISR+0x18>)
    13c6:	f001 fc7b 	bl	2cc0 <rprintf>
	#endif
	if (vicerr_Functions) vicerr_Functions(22);
    13ca:	4b04      	ldr	r3, [pc, #16]	; (13dc <i2c2_ISR+0x1c>)
    13cc:	681a      	ldr	r2, [r3, #0]
    13ce:	b112      	cbz	r2, 13d6 <i2c2_ISR+0x16>
    13d0:	681b      	ldr	r3, [r3, #0]
    13d2:	2016      	movs	r0, #22
    13d4:	4798      	blx	r3
    13d6:	e7fe      	b.n	13d6 <i2c2_ISR+0x16>
    13d8:	000038dc 	.word	0x000038dc
    13dc:	10000160 	.word	0x10000160

Disassembly of section .text.i2c1_ISR:

000013e0 <i2c1_ISR>:
	plognp("vicErr i2c0");
	#endif
	if (vicerr_Functions) vicerr_Functions(20);
	while(1);
}
void i2c1_ISR (void) {
    13e0:	b508      	push	{r3, lr}
	#if (VICERR_USE_DEBUG == pdON)
	plognp("vicErr i2c1");
    13e2:	2002      	movs	r0, #2
    13e4:	4904      	ldr	r1, [pc, #16]	; (13f8 <i2c1_ISR+0x18>)
    13e6:	f001 fc6b 	bl	2cc0 <rprintf>
	#endif
	if (vicerr_Functions) vicerr_Functions(21);
    13ea:	4b04      	ldr	r3, [pc, #16]	; (13fc <i2c1_ISR+0x1c>)
    13ec:	681a      	ldr	r2, [r3, #0]
    13ee:	b112      	cbz	r2, 13f6 <i2c1_ISR+0x16>
    13f0:	681b      	ldr	r3, [r3, #0]
    13f2:	2015      	movs	r0, #21
    13f4:	4798      	blx	r3
    13f6:	e7fe      	b.n	13f6 <i2c1_ISR+0x16>
    13f8:	000038e8 	.word	0x000038e8
    13fc:	10000160 	.word	0x10000160

Disassembly of section .text.i2c0_ISR:

00001400 <i2c0_ISR>:
	plognp("vicErr pwm");
	#endif
	if (vicerr_Functions) vicerr_Functions(19);
	while(1);
}
void i2c0_ISR (void) {
    1400:	b508      	push	{r3, lr}
	#if (VICERR_USE_DEBUG == pdON)
	plognp("vicErr i2c0");
    1402:	2002      	movs	r0, #2
    1404:	4904      	ldr	r1, [pc, #16]	; (1418 <i2c0_ISR+0x18>)
    1406:	f001 fc5b 	bl	2cc0 <rprintf>
	#endif
	if (vicerr_Functions) vicerr_Functions(20);
    140a:	4b04      	ldr	r3, [pc, #16]	; (141c <i2c0_ISR+0x1c>)
    140c:	681a      	ldr	r2, [r3, #0]
    140e:	b112      	cbz	r2, 1416 <i2c0_ISR+0x16>
    1410:	681b      	ldr	r3, [r3, #0]
    1412:	2014      	movs	r0, #20
    1414:	4798      	blx	r3
    1416:	e7fe      	b.n	1416 <i2c0_ISR+0x16>
    1418:	000038f4 	.word	0x000038f4
    141c:	10000160 	.word	0x10000160

Disassembly of section .text.pwm_ISR:

00001420 <pwm_ISR>:
	plognp("vicErr uart3");
	#endif
	if (vicerr_Functions) vicerr_Functions(18);
	while(1);
}
void pwm_ISR (void) {
    1420:	b508      	push	{r3, lr}
	#if (VICERR_USE_DEBUG == pdON)
	plognp("vicErr pwm");
    1422:	2002      	movs	r0, #2
    1424:	4904      	ldr	r1, [pc, #16]	; (1438 <pwm_ISR+0x18>)
    1426:	f001 fc4b 	bl	2cc0 <rprintf>
	#endif
	if (vicerr_Functions) vicerr_Functions(19);
    142a:	4b04      	ldr	r3, [pc, #16]	; (143c <pwm_ISR+0x1c>)
    142c:	681a      	ldr	r2, [r3, #0]
    142e:	b112      	cbz	r2, 1436 <pwm_ISR+0x16>
    1430:	681b      	ldr	r3, [r3, #0]
    1432:	2013      	movs	r0, #19
    1434:	4798      	blx	r3
    1436:	e7fe      	b.n	1436 <pwm_ISR+0x16>
    1438:	00003900 	.word	0x00003900
    143c:	10000160 	.word	0x10000160

Disassembly of section .text.uart2_ISR:

00001440 <uart2_ISR>:
	plognp("vicErr uart1");
	#endif
	if (vicerr_Functions) vicerr_Functions(16);
	while(1);
}
void uart2_ISR (void) {
    1440:	b508      	push	{r3, lr}
	#if (VICERR_USE_DEBUG == pdON)
	plognp("vicErr uart2");
    1442:	2002      	movs	r0, #2
    1444:	4904      	ldr	r1, [pc, #16]	; (1458 <uart2_ISR+0x18>)
    1446:	f001 fc3b 	bl	2cc0 <rprintf>
	#endif
	if (vicerr_Functions) vicerr_Functions(17);
    144a:	4b04      	ldr	r3, [pc, #16]	; (145c <uart2_ISR+0x1c>)
    144c:	681a      	ldr	r2, [r3, #0]
    144e:	b112      	cbz	r2, 1456 <uart2_ISR+0x16>
    1450:	681b      	ldr	r3, [r3, #0]
    1452:	2011      	movs	r0, #17
    1454:	4798      	blx	r3
    1456:	e7fe      	b.n	1456 <uart2_ISR+0x16>
    1458:	00003918 	.word	0x00003918
    145c:	10000160 	.word	0x10000160

Disassembly of section .text.timer3_ISR:

00001460 <timer3_ISR>:
	plognp("vicErr timer2");
	#endif
	if (vicerr_Functions) vicerr_Functions(13);
	while(1);
}
void timer3_ISR (void) {
    1460:	b508      	push	{r3, lr}
	#if (VICERR_USE_DEBUG == pdON)
	plognp("vicErr timer3");
    1462:	2002      	movs	r0, #2
    1464:	4904      	ldr	r1, [pc, #16]	; (1478 <timer3_ISR+0x18>)
    1466:	f001 fc2b 	bl	2cc0 <rprintf>
	#endif
	if (vicerr_Functions) vicerr_Functions(14);
    146a:	4b04      	ldr	r3, [pc, #16]	; (147c <timer3_ISR+0x1c>)
    146c:	681a      	ldr	r2, [r3, #0]
    146e:	b112      	cbz	r2, 1476 <timer3_ISR+0x16>
    1470:	681b      	ldr	r3, [r3, #0]
    1472:	200e      	movs	r0, #14
    1474:	4798      	blx	r3
    1476:	e7fe      	b.n	1476 <timer3_ISR+0x16>
    1478:	0000393f 	.word	0x0000393f
    147c:	10000160 	.word	0x10000160

Disassembly of section .text.timer2_ISR:

00001480 <timer2_ISR>:
	plognp("vicErr timer1");
	#endif
	if (vicerr_Functions) vicerr_Functions(12);
	while(1);
}
void timer2_ISR (void) {
    1480:	b508      	push	{r3, lr}
	#if (VICERR_USE_DEBUG == pdON)
	plognp("vicErr timer2");
    1482:	2002      	movs	r0, #2
    1484:	4904      	ldr	r1, [pc, #16]	; (1498 <timer2_ISR+0x18>)
    1486:	f001 fc1b 	bl	2cc0 <rprintf>
	#endif
	if (vicerr_Functions) vicerr_Functions(13);
    148a:	4b04      	ldr	r3, [pc, #16]	; (149c <timer2_ISR+0x1c>)
    148c:	681a      	ldr	r2, [r3, #0]
    148e:	b112      	cbz	r2, 1496 <timer2_ISR+0x16>
    1490:	681b      	ldr	r3, [r3, #0]
    1492:	200d      	movs	r0, #13
    1494:	4798      	blx	r3
    1496:	e7fe      	b.n	1496 <timer2_ISR+0x16>
    1498:	0000394d 	.word	0x0000394d
    149c:	10000160 	.word	0x10000160

Disassembly of section .text.timer1_ISR:

000014a0 <timer1_ISR>:
	plognp("vicErr timer0");
	#endif
	if (vicerr_Functions) vicerr_Functions(11);
	while(1);
}
void timer1_ISR (void) {
    14a0:	b508      	push	{r3, lr}
	#if (VICERR_USE_DEBUG == pdON)
	plognp("vicErr timer1");
    14a2:	2002      	movs	r0, #2
    14a4:	4904      	ldr	r1, [pc, #16]	; (14b8 <timer1_ISR+0x18>)
    14a6:	f001 fc0b 	bl	2cc0 <rprintf>
	#endif
	if (vicerr_Functions) vicerr_Functions(12);
    14aa:	4b04      	ldr	r3, [pc, #16]	; (14bc <timer1_ISR+0x1c>)
    14ac:	681a      	ldr	r2, [r3, #0]
    14ae:	b112      	cbz	r2, 14b6 <timer1_ISR+0x16>
    14b0:	681b      	ldr	r3, [r3, #0]
    14b2:	200c      	movs	r0, #12
    14b4:	4798      	blx	r3
    14b6:	e7fe      	b.n	14b6 <timer1_ISR+0x16>
    14b8:	0000395b 	.word	0x0000395b
    14bc:	10000160 	.word	0x10000160

Disassembly of section .text.timer0_ISR:

000014c0 <timer0_ISR>:
	plognp("vicErr wdt");
	#endif
	if (vicerr_Functions) vicerr_Functions(10);
	while(1);
}
void timer0_ISR (void) {
    14c0:	b508      	push	{r3, lr}
	#if (VICERR_USE_DEBUG == pdON)
	plognp("vicErr timer0");
    14c2:	2002      	movs	r0, #2
    14c4:	4904      	ldr	r1, [pc, #16]	; (14d8 <timer0_ISR+0x18>)
    14c6:	f001 fbfb 	bl	2cc0 <rprintf>
	#endif
	if (vicerr_Functions) vicerr_Functions(11);
    14ca:	4b04      	ldr	r3, [pc, #16]	; (14dc <timer0_ISR+0x1c>)
    14cc:	681a      	ldr	r2, [r3, #0]
    14ce:	b112      	cbz	r2, 14d6 <timer0_ISR+0x16>
    14d0:	681b      	ldr	r3, [r3, #0]
    14d2:	200b      	movs	r0, #11
    14d4:	4798      	blx	r3
    14d6:	e7fe      	b.n	14d6 <timer0_ISR+0x16>
    14d8:	00003969 	.word	0x00003969
    14dc:	10000160 	.word	0x10000160

Disassembly of section .text.wdt_ISR:

000014e0 <wdt_ISR>:
	plognp("vicErr sysTick");
	#endif
	if (vicerr_Functions) vicerr_Functions(9);
	while(1);
}
void wdt_ISR (void) {
    14e0:	b508      	push	{r3, lr}
	#if (VICERR_USE_DEBUG == pdON)
	plognp("vicErr wdt");
    14e2:	2002      	movs	r0, #2
    14e4:	4904      	ldr	r1, [pc, #16]	; (14f8 <wdt_ISR+0x18>)
    14e6:	f001 fbeb 	bl	2cc0 <rprintf>
	#endif
	if (vicerr_Functions) vicerr_Functions(10);
    14ea:	4b04      	ldr	r3, [pc, #16]	; (14fc <wdt_ISR+0x1c>)
    14ec:	681a      	ldr	r2, [r3, #0]
    14ee:	b112      	cbz	r2, 14f6 <wdt_ISR+0x16>
    14f0:	681b      	ldr	r3, [r3, #0]
    14f2:	200a      	movs	r0, #10
    14f4:	4798      	blx	r3
    14f6:	e7fe      	b.n	14f6 <wdt_ISR+0x16>
    14f8:	00003977 	.word	0x00003977
    14fc:	10000160 	.word	0x10000160

Disassembly of section .text.pendSV_ISR:

00001500 <pendSV_ISR>:
	plognp("vicErr debugMon");
	#endif
	if (vicerr_Functions) vicerr_Functions(7);
	while(1);
}
void pendSV_ISR (void) {
    1500:	b508      	push	{r3, lr}
	#if (VICERR_USE_DEBUG == pdON)
	plognp("vicErr pendSV");
    1502:	2002      	movs	r0, #2
    1504:	4904      	ldr	r1, [pc, #16]	; (1518 <pendSV_ISR+0x18>)
    1506:	f001 fbdb 	bl	2cc0 <rprintf>
	#endif
	if (vicerr_Functions) vicerr_Functions(8);
    150a:	4b04      	ldr	r3, [pc, #16]	; (151c <pendSV_ISR+0x1c>)
    150c:	681a      	ldr	r2, [r3, #0]
    150e:	b112      	cbz	r2, 1516 <pendSV_ISR+0x16>
    1510:	681b      	ldr	r3, [r3, #0]
    1512:	2008      	movs	r0, #8
    1514:	4798      	blx	r3
    1516:	e7fe      	b.n	1516 <pendSV_ISR+0x16>
    1518:	00003991 	.word	0x00003991
    151c:	10000160 	.word	0x10000160

Disassembly of section .text.debugMon_ISR:

00001520 <debugMon_ISR>:
	plognp("vicErr svc");
	#endif
	if (vicerr_Functions) vicerr_Functions(6);
	while(1);
}
void debugMon_ISR (void) {
    1520:	b508      	push	{r3, lr}
	#if (VICERR_USE_DEBUG == pdON)
	plognp("vicErr debugMon");
    1522:	2002      	movs	r0, #2
    1524:	4904      	ldr	r1, [pc, #16]	; (1538 <debugMon_ISR+0x18>)
    1526:	f001 fbcb 	bl	2cc0 <rprintf>
	#endif
	if (vicerr_Functions) vicerr_Functions(7);
    152a:	4b04      	ldr	r3, [pc, #16]	; (153c <debugMon_ISR+0x1c>)
    152c:	681a      	ldr	r2, [r3, #0]
    152e:	b112      	cbz	r2, 1536 <debugMon_ISR+0x16>
    1530:	681b      	ldr	r3, [r3, #0]
    1532:	2007      	movs	r0, #7
    1534:	4798      	blx	r3
    1536:	e7fe      	b.n	1536 <debugMon_ISR+0x16>
    1538:	0000399f 	.word	0x0000399f
    153c:	10000160 	.word	0x10000160

Disassembly of section .text.svc_ISR:

00001540 <svc_ISR>:
	plognp("vicErr usageFault_ISR");
	#endif
	if (vicerr_Functions) vicerr_Functions(5);
	while(1);
}
void svc_ISR (void) {
    1540:	b508      	push	{r3, lr}
#if (VICERR_USE_DEBUG == pdON)
	plognp("vicErr svc");
    1542:	2002      	movs	r0, #2
    1544:	4904      	ldr	r1, [pc, #16]	; (1558 <svc_ISR+0x18>)
    1546:	f001 fbbb 	bl	2cc0 <rprintf>
	#endif
	if (vicerr_Functions) vicerr_Functions(6);
    154a:	4b04      	ldr	r3, [pc, #16]	; (155c <svc_ISR+0x1c>)
    154c:	681a      	ldr	r2, [r3, #0]
    154e:	b112      	cbz	r2, 1556 <svc_ISR+0x16>
    1550:	681b      	ldr	r3, [r3, #0]
    1552:	2006      	movs	r0, #6
    1554:	4798      	blx	r3
    1556:	e7fe      	b.n	1556 <svc_ISR+0x16>
    1558:	000039af 	.word	0x000039af
    155c:	10000160 	.word	0x10000160

Disassembly of section .text.usageFault_ISR:

00001560 <usageFault_ISR>:
	plognp("vicErr busFault");
	#endif
	if (vicerr_Functions) vicerr_Functions(4);
	while(1);
}
void usageFault_ISR (void) {
    1560:	b508      	push	{r3, lr}
	#if (VICERR_USE_DEBUG == pdON)
	plognp("vicErr usageFault_ISR");
    1562:	2002      	movs	r0, #2
    1564:	4904      	ldr	r1, [pc, #16]	; (1578 <usageFault_ISR+0x18>)
    1566:	f001 fbab 	bl	2cc0 <rprintf>
	#endif
	if (vicerr_Functions) vicerr_Functions(5);
    156a:	4b04      	ldr	r3, [pc, #16]	; (157c <usageFault_ISR+0x1c>)
    156c:	681a      	ldr	r2, [r3, #0]
    156e:	b112      	cbz	r2, 1576 <usageFault_ISR+0x16>
    1570:	681b      	ldr	r3, [r3, #0]
    1572:	2005      	movs	r0, #5
    1574:	4798      	blx	r3
    1576:	e7fe      	b.n	1576 <usageFault_ISR+0x16>
    1578:	000039ba 	.word	0x000039ba
    157c:	10000160 	.word	0x10000160

Disassembly of section .text.busFault_ISR:

00001580 <busFault_ISR>:
	plognp("vicErr memManage");
	#endif
	if (vicerr_Functions) vicerr_Functions(3);
	while(1);
}
void busFault_ISR (void) {
    1580:	b508      	push	{r3, lr}
	#if (VICERR_USE_DEBUG == pdON)
	plognp("vicErr busFault");
    1582:	2002      	movs	r0, #2
    1584:	4904      	ldr	r1, [pc, #16]	; (1598 <busFault_ISR+0x18>)
    1586:	f001 fb9b 	bl	2cc0 <rprintf>
	#endif
	if (vicerr_Functions) vicerr_Functions(4);
    158a:	4b04      	ldr	r3, [pc, #16]	; (159c <busFault_ISR+0x1c>)
    158c:	681a      	ldr	r2, [r3, #0]
    158e:	b112      	cbz	r2, 1596 <busFault_ISR+0x16>
    1590:	681b      	ldr	r3, [r3, #0]
    1592:	2004      	movs	r0, #4
    1594:	4798      	blx	r3
    1596:	e7fe      	b.n	1596 <busFault_ISR+0x16>
    1598:	000039d0 	.word	0x000039d0
    159c:	10000160 	.word	0x10000160

Disassembly of section .text.memManage_ISR:

000015a0 <memManage_ISR>:
	plognp("  Registrador acessando pino I/O apontando para duas funes diferentes"CMD_TERMINATOR);
	#endif
	if (vicerr_Functions) vicerr_Functions(2);
	while(1);
}
void memManage_ISR (void) {
    15a0:	b508      	push	{r3, lr}
	#if (VICERR_USE_DEBUG == pdON)
	plognp("vicErr memManage");
    15a2:	2002      	movs	r0, #2
    15a4:	4904      	ldr	r1, [pc, #16]	; (15b8 <memManage_ISR+0x18>)
    15a6:	f001 fb8b 	bl	2cc0 <rprintf>
	#endif
	if (vicerr_Functions) vicerr_Functions(3);
    15aa:	4b04      	ldr	r3, [pc, #16]	; (15bc <memManage_ISR+0x1c>)
    15ac:	681a      	ldr	r2, [r3, #0]
    15ae:	b112      	cbz	r2, 15b6 <memManage_ISR+0x16>
    15b0:	681b      	ldr	r3, [r3, #0]
    15b2:	2003      	movs	r0, #3
    15b4:	4798      	blx	r3
    15b6:	e7fe      	b.n	15b6 <memManage_ISR+0x16>
    15b8:	000039e0 	.word	0x000039e0
    15bc:	10000160 	.word	0x10000160

Disassembly of section .text.hardFault_ISR:

000015c0 <hardFault_ISR>:
	plognp("vicErr NMI");
	#endif
	if (vicerr_Functions) vicerr_Functions(1);
	while(1);
}
void hardFault_ISR (void) {
    15c0:	b508      	push	{r3, lr}
	#if (VICERR_USE_DEBUG == pdON)
	plognp("vicErr hardFault"CMD_TERMINATOR);
    15c2:	490d      	ldr	r1, [pc, #52]	; (15f8 <hardFault_ISR+0x38>)
    15c4:	2002      	movs	r0, #2
    15c6:	f001 fb7b 	bl	2cc0 <rprintf>
	plognp("Possiveis causas:"CMD_TERMINATOR);
    15ca:	490c      	ldr	r1, [pc, #48]	; (15fc <hardFault_ISR+0x3c>)
    15cc:	2002      	movs	r0, #2
    15ce:	f001 fb77 	bl	2cc0 <rprintf>
	plognp("  Acesso a um hardware no ligado ou com clock desligado"CMD_TERMINATOR);
    15d2:	490b      	ldr	r1, [pc, #44]	; (1600 <hardFault_ISR+0x40>)
    15d4:	2002      	movs	r0, #2
    15d6:	f001 fb73 	bl	2cc0 <rprintf>
	plognp("  Acesso a memria inexistente"CMD_TERMINATOR);
    15da:	490a      	ldr	r1, [pc, #40]	; (1604 <hardFault_ISR+0x44>)
    15dc:	2002      	movs	r0, #2
    15de:	f001 fb6f 	bl	2cc0 <rprintf>
	plognp("  Registrador acessando pino I/O apontando para duas funes diferentes"CMD_TERMINATOR);
    15e2:	2002      	movs	r0, #2
    15e4:	4908      	ldr	r1, [pc, #32]	; (1608 <hardFault_ISR+0x48>)
    15e6:	f001 fb6b 	bl	2cc0 <rprintf>
	#endif
	if (vicerr_Functions) vicerr_Functions(2);
    15ea:	4b08      	ldr	r3, [pc, #32]	; (160c <hardFault_ISR+0x4c>)
    15ec:	681a      	ldr	r2, [r3, #0]
    15ee:	b112      	cbz	r2, 15f6 <hardFault_ISR+0x36>
    15f0:	681b      	ldr	r3, [r3, #0]
    15f2:	2002      	movs	r0, #2
    15f4:	4798      	blx	r3
    15f6:	e7fe      	b.n	15f6 <hardFault_ISR+0x36>
    15f8:	000039f1 	.word	0x000039f1
    15fc:	00003a03 	.word	0x00003a03
    1600:	00003a16 	.word	0x00003a16
    1604:	00003a50 	.word	0x00003a50
    1608:	00003a70 	.word	0x00003a70
    160c:	10000160 	.word	0x10000160

Disassembly of section .text.nmi_ISR:

00001610 <nmi_ISR>:
}; /* gVectors */

/*
 * And here are the weak interrupt handlers.
 */
void nmi_ISR (void) {
    1610:	b508      	push	{r3, lr}
	#if (VICERR_USE_DEBUG == pdON)
	plognp("vicErr NMI");
    1612:	2002      	movs	r0, #2
    1614:	4904      	ldr	r1, [pc, #16]	; (1628 <nmi_ISR+0x18>)
    1616:	f001 fb53 	bl	2cc0 <rprintf>
	#endif
	if (vicerr_Functions) vicerr_Functions(1);
    161a:	4b04      	ldr	r3, [pc, #16]	; (162c <nmi_ISR+0x1c>)
    161c:	681a      	ldr	r2, [r3, #0]
    161e:	b112      	cbz	r2, 1626 <nmi_ISR+0x16>
    1620:	681b      	ldr	r3, [r3, #0]
    1622:	2001      	movs	r0, #1
    1624:	4798      	blx	r3
    1626:	e7fe      	b.n	1626 <nmi_ISR+0x16>
    1628:	00003ab9 	.word	0x00003ab9
    162c:	10000160 	.word	0x10000160

Disassembly of section .text.nvic_enableIRQ:

00001630 <nvic_enableIRQ>:
	reg32 *addrPort = &ISER0; 		// Pegar o endereo do registrador para habilitar a int
	#if (VIC_USE_DEBUG == pdON)
	plognp("addrPort 0x%x"CMD_TERMINATOR, addrPort);
	#endif

	addrPort+=(reg32)(numIRQ/VIC_SIZE); 	// Determinar em que registrador pertence ao perifrico
    1630:	0943      	lsrs	r3, r0, #5
	#if (VIC_USE_DEBUG == pdON)
	plognp("addrPort 0x%x = 0x%x "CMD_TERMINATOR, addrPort, (1 << (numIRQ%VIC_SIZE)));
	#endif
	*addrPort = (1 << (numIRQ%VIC_SIZE));	// Habilitar interrupo do perifrico
    1632:	2201      	movs	r2, #1
    1634:	f000 001f 	and.w	r0, r0, #31
    1638:	fa02 f000 	lsl.w	r0, r2, r0
	reg32 *addrPort = &ISER0; 		// Pegar o endereo do registrador para habilitar a int
	#if (VIC_USE_DEBUG == pdON)
	plognp("addrPort 0x%x"CMD_TERMINATOR, addrPort);
	#endif

	addrPort+=(reg32)(numIRQ/VIC_SIZE); 	// Determinar em que registrador pertence ao perifrico
    163c:	009b      	lsls	r3, r3, #2
    163e:	f103 4360 	add.w	r3, r3, #3758096384	; 0xe0000000
    1642:	f503 4361 	add.w	r3, r3, #57600	; 0xe100
	#if (VIC_USE_DEBUG == pdON)
	plognp("addrPort 0x%x = 0x%x "CMD_TERMINATOR, addrPort, (1 << (numIRQ%VIC_SIZE)));
	#endif
	*addrPort = (1 << (numIRQ%VIC_SIZE));	// Habilitar interrupo do perifrico
    1646:	6018      	str	r0, [r3, #0]
    1648:	4770      	bx	lr

Disassembly of section .text.nvic_clearPendingIRQ:

0000164c <nvic_clearPendingIRQ>:
// Parametro:	ID da interrupo do perifrico
// Retorna:		Nada
// -----------------------------------------------------------------------------------------------
void nvic_clearPendingIRQ(u8 numIRQ) {
	reg32 *addrPort = &ICPR0; 		// Pegar o endereo do registrador do perifrico
	addrPort+=(reg32)(numIRQ/VIC_SIZE); 	// Determinar em que registrador pertence ao perifrico
    164c:	0942      	lsrs	r2, r0, #5
	*addrPort = (1 << (numIRQ%VIC_SIZE));	// Desabilitar a pendencia interrupo do perifrico
    164e:	2301      	movs	r3, #1
    1650:	f000 001f 	and.w	r0, r0, #31
    1654:	fa03 f000 	lsl.w	r0, r3, r0
    1658:	4b01      	ldr	r3, [pc, #4]	; (1660 <nvic_clearPendingIRQ+0x14>)
    165a:	f843 0022 	str.w	r0, [r3, r2, lsl #2]
    165e:	4770      	bx	lr
    1660:	e000e280 	.word	0xe000e280

Disassembly of section .text.nvic_setPriority:

00001664 <nvic_setPriority>:
// -----------------------------------------------------------------------------------------------
void nvic_setPriority(s32 numIRQ, u8 priority) {
	#if (VIC_USE_DEBUG == pdON)
	plognp("set pri %d %u"CMD_TERMINATOR, numIRQ, priority);
	#endif
	if(numIRQ < 0) {
    1664:	2800      	cmp	r0, #0
    1666:	da09      	bge.n	167c <nvic_setPriority+0x18>
		reg32 *addrPort = &SHPR1; 				// Pegar o endereo do registrador do perifrico
		addrPort+=(reg32)(((numIRQ&0xf)-4)/4); 	// Determinar em que registrador pertence ao perifrico.
    1668:	f000 020f 	and.w	r2, r0, #15
    166c:	2304      	movs	r3, #4
    166e:	3a04      	subs	r2, #4
    1670:	fb92 f2f3 	sdiv	r2, r2, r3
    1674:	4b07      	ldr	r3, [pc, #28]	; (1694 <nvic_setPriority+0x30>)
    1676:	0092      	lsls	r2, r2, #2
    1678:	18d3      	adds	r3, r2, r3
    167a:	e005      	b.n	1688 <nvic_setPriority+0x24>
	} else {
		reg32 *addrPort = &IPR_BASE; 		// Pegar o endereo do registrador do perifrico
		#if (VIC_USE_DEBUG == pdON)
		plognp("addrPort 0x%x"CMD_TERMINATOR, addrPort);
		#endif
		addrPort+=(reg32)(numIRQ/4); 		// Determinar em que registrador pertence ao perifrico
    167c:	f020 0303 	bic.w	r3, r0, #3
    1680:	f103 4360 	add.w	r3, r3, #3758096384	; 0xe0000000
    1684:	f503 4364 	add.w	r3, r3, #58368	; 0xe400
		#endif
		offset+=(reg8)numIRQ%4;
		#if (VIC_USE_DEBUG == pdON)
		plognp("offset 0x%x = 0x%x"CMD_TERMINATOR, offset, ((priority << (8 - VIC_PRIO_BITS)) & 0xff));
		#endif
		*offset = ((priority << (8 - VIC_PRIO_BITS)) & 0xff);
    1688:	00c9      	lsls	r1, r1, #3
		// logo cada byte  para cada perifrico, ento precisamo encontrar em que local [e
		reg8 *offset = (reg8*) addrPort;
		#if (VIC_USE_DEBUG == pdON)
		plognp("offset init 0x%x"CMD_TERMINATOR, offset);
		#endif
		offset+=(reg8)numIRQ%4;
    168a:	f000 0003 	and.w	r0, r0, #3
		#if (VIC_USE_DEBUG == pdON)
		plognp("offset 0x%x = 0x%x"CMD_TERMINATOR, offset, ((priority << (8 - VIC_PRIO_BITS)) & 0xff));
		#endif
		*offset = ((priority << (8 - VIC_PRIO_BITS)) & 0xff);
    168e:	b2c9      	uxtb	r1, r1
    1690:	5419      	strb	r1, [r3, r0]
    1692:	4770      	bx	lr
    1694:	e000ed18 	.word	0xe000ed18

Disassembly of section .text.nvic_SetIntHandler:

00001698 <nvic_SetIntHandler>:
//						}
//						ATENO: NUNCA USA O DELAY COM INTERRUPO, USE A LIB COM LOOP, pois se este  um procedimento de erro de
// Retorna:		Nada
// ----------------------------------------------------------------------------------------------------------------
void nvic_SetIntHandler(void (*func)(int) ) {
	vicerr_Functions = func;
    1698:	4b01      	ldr	r3, [pc, #4]	; (16a0 <nvic_SetIntHandler+0x8>)
    169a:	6018      	str	r0, [r3, #0]
    169c:	4770      	bx	lr
    169e:	bf00      	nop
    16a0:	10000160 	.word	0x10000160

Disassembly of section .text.systime_Init:

000016a4 <systime_Init>:
// Parametros:	Nenhum
// Retorna:		Nada
// -------------------------------------------------------------------------------------------------------------------
int systime_Init(void) {
	#if (SYSTIME_USE_LED == pdON)
	SYSTIME_LED_DIR |= SYSTIME_LED; 					// Colocar o pino do led para saida
    16a4:	4b0e      	ldr	r3, [pc, #56]	; (16e0 <systime_Init+0x3c>)

  	systime_ClearIntHandler(); // retira qualquer funo anexada para interrupo do systime
  	countTicks_ms = 0; // Limpa o contador de ticks do sistema

	return pdPASS;
}
    16a6:	2001      	movs	r0, #1
// Parametros:	Nenhum
// Retorna:		Nada
// -------------------------------------------------------------------------------------------------------------------
int systime_Init(void) {
	#if (SYSTIME_USE_LED == pdON)
	SYSTIME_LED_DIR |= SYSTIME_LED; 					// Colocar o pino do led para saida
    16a8:	681a      	ldr	r2, [r3, #0]
    16aa:	f042 5280 	orr.w	r2, r2, #268435456	; 0x10000000
    16ae:	601a      	str	r2, [r3, #0]
	countTicksLed = 0;
    16b0:	4b0c      	ldr	r3, [pc, #48]	; (16e4 <systime_Init+0x40>)
    16b2:	2200      	movs	r2, #0
    16b4:	601a      	str	r2, [r3, #0]
	#endif

	// Make PendSV and SysTick the lowest priority interrupts
	NVIC_SYSPRI2_REG |= ( ( ( u32 ) configINTERRUPT_PRIORITY ) << 16UL );
    16b6:	4b0c      	ldr	r3, [pc, #48]	; (16e8 <systime_Init+0x44>)
    16b8:	6819      	ldr	r1, [r3, #0]
    16ba:	f441 0178 	orr.w	r1, r1, #16252928	; 0xf80000
    16be:	6019      	str	r1, [r3, #0]
	NVIC_SYSPRI2_REG |= ( ( ( u32 ) configINTERRUPT_PRIORITY ) << 24UL );
    16c0:	6819      	ldr	r1, [r3, #0]
    16c2:	f041 4178 	orr.w	r1, r1, #4160749568	; 0xf8000000
    16c6:	6019      	str	r1, [r3, #0]

	// Configure SysTick to interrupt at the requested rate.
	STRELOAD = ( CCLK / 1000 / SYSTIME_BASE_TICK ) - 1UL;
    16c8:	4b08      	ldr	r3, [pc, #32]	; (16ec <systime_Init+0x48>)
    16ca:	4909      	ldr	r1, [pc, #36]	; (16f0 <systime_Init+0x4c>)
    16cc:	6019      	str	r1, [r3, #0]
	STCTRL = ( STCTRL_CLKSOURCE | STCTRL_TICKINT | STCTRL_ENABLE );
    16ce:	2107      	movs	r1, #7
    16d0:	f843 1c04 	str.w	r1, [r3, #-4]
// Descrio: 	Retira a routina da inetrrupao desejada do vetor de interrupes
// Parametros:	Nenhum
// Retorna:		Nada
// ----------------------------------------------------------------------------------------------------------------
void systime_ClearIntHandler(void) {
	systime_IntFunctions = 0;
    16d4:	4b07      	ldr	r3, [pc, #28]	; (16f4 <systime_Init+0x50>)
    16d6:	601a      	str	r2, [r3, #0]
	// Configure SysTick to interrupt at the requested rate.
	STRELOAD = ( CCLK / 1000 / SYSTIME_BASE_TICK ) - 1UL;
	STCTRL = ( STCTRL_CLKSOURCE | STCTRL_TICKINT | STCTRL_ENABLE );

  	systime_ClearIntHandler(); // retira qualquer funo anexada para interrupo do systime
  	countTicks_ms = 0; // Limpa o contador de ticks do sistema
    16d8:	4b07      	ldr	r3, [pc, #28]	; (16f8 <systime_Init+0x54>)
    16da:	601a      	str	r2, [r3, #0]

	return pdPASS;
}
    16dc:	4770      	bx	lr
    16de:	bf00      	nop
    16e0:	2009c080 	.word	0x2009c080
    16e4:	10000164 	.word	0x10000164
    16e8:	e000ed20 	.word	0xe000ed20
    16ec:	e000e014 	.word	0xe000e014
    16f0:	0001869f 	.word	0x0001869f
    16f4:	10000170 	.word	0x10000170
    16f8:	10000168 	.word	0x10000168

Disassembly of section .text.systime_SetIntHandler:

000016fc <systime_SetIntHandler>:
//					Ponteiro da rotina que tratar a interrupo do timer.
//					Ex:	systime_SetIntHandler(myOverflowFunction, xticks);
//				xticks: Quantidade de ticks que a funo deve ser chamada. Consultar SYSTIME_BASE_TICK
// Retorna:		Nada
// ----------------------------------------------------------------------------------------------------------------
void systime_SetIntHandler(void (*int_func)(void), uint xticks ) {
    16fc:	4b03      	ldr	r3, [pc, #12]	; (170c <systime_SetIntHandler+0x10>)
	if (xticks == 0) { systime_IntFunctions = 0; return;}
    16fe:	b901      	cbnz	r1, 1702 <systime_SetIntHandler+0x6>
    1700:	e001      	b.n	1706 <systime_SetIntHandler+0xa>
	systime_IntFunctions = int_func;
    1702:	6018      	str	r0, [r3, #0]
	callfuncTime = xticks;
    1704:	4b02      	ldr	r3, [pc, #8]	; (1710 <systime_SetIntHandler+0x14>)
    1706:	6019      	str	r1, [r3, #0]
    1708:	4770      	bx	lr
    170a:	bf00      	nop
    170c:	10000170 	.word	0x10000170
    1710:	1000016c 	.word	0x1000016c

Disassembly of section .text.sysTick_ISR:

00001714 <sysTick_ISR>:

// ################################################################################################################
// SYSTEM TIMER INTERRUPO
// ################################################################################################################
// ################################################################################################################
void sysTick_ISR (void) {
    1714:	b508      	push	{r3, lr}
    ISR_ENTRY;	// Procedimento para entrada da interrupo

	countTicks_ms++;
    1716:	4b12      	ldr	r3, [pc, #72]	; (1760 <sysTick_ISR+0x4c>)
    1718:	681a      	ldr	r2, [r3, #0]
    171a:	3201      	adds	r2, #1
    171c:	601a      	str	r2, [r3, #0]

	// Checa se existe uma funo anexada a interrupo e  tempo de chamar a funo
	if ( (systime_IntFunctions) && (countTicks_ms % callfuncTime == 0))
    171e:	4a11      	ldr	r2, [pc, #68]	; (1764 <sysTick_ISR+0x50>)
    1720:	6811      	ldr	r1, [r2, #0]
    1722:	b149      	cbz	r1, 1738 <sysTick_ISR+0x24>
    1724:	6819      	ldr	r1, [r3, #0]
    1726:	4b10      	ldr	r3, [pc, #64]	; (1768 <sysTick_ISR+0x54>)
    1728:	681b      	ldr	r3, [r3, #0]
    172a:	fbb1 f0f3 	udiv	r0, r1, r3
    172e:	fb03 1310 	mls	r3, r3, r0, r1
    1732:	b90b      	cbnz	r3, 1738 <sysTick_ISR+0x24>
		systime_IntFunctions();					// Execute a funo anexada
    1734:	6813      	ldr	r3, [r2, #0]
    1736:	4798      	blx	r3

	#if (SYSTIME_USE_LED == pdON)
	if (countTicksLed >= SYSTIME_LED_OFF_MS*SYSTIME_BASE_TICK + SYSTIME_LED_ON_MS*SYSTIME_BASE_TICK)
    1738:	4b0c      	ldr	r3, [pc, #48]	; (176c <sysTick_ISR+0x58>)
    173a:	681a      	ldr	r2, [r3, #0]
    173c:	f5b2 7f7a 	cmp.w	r2, #1000	; 0x3e8
    1740:	d301      	bcc.n	1746 <sysTick_ISR+0x32>
		countTicksLed = 0;
    1742:	2200      	movs	r2, #0
    1744:	601a      	str	r2, [r3, #0]
		countTicksLed++;
    1746:	681a      	ldr	r2, [r3, #0]
    1748:	3201      	adds	r2, #1
    174a:	601a      	str	r2, [r3, #0]
		if (countTicksLed > SYSTIME_LED_OFF_MS*SYSTIME_BASE_TICK) {
    174c:	681b      	ldr	r3, [r3, #0]
    174e:	f5b3 7f61 	cmp.w	r3, #900	; 0x384
			SYSTIME_LED_ON = SYSTIME_LED;
    1752:	bf8c      	ite	hi
    1754:	4a06      	ldrhi	r2, [pc, #24]	; (1770 <sysTick_ISR+0x5c>)
		} else {
			SYSTIME_LED_OFF = SYSTIME_LED;
    1756:	4a07      	ldrls	r2, [pc, #28]	; (1774 <sysTick_ISR+0x60>)
    1758:	f04f 5380 	mov.w	r3, #268435456	; 0x10000000
    175c:	6013      	str	r3, [r2, #0]
    175e:	bd08      	pop	{r3, pc}
    1760:	10000168 	.word	0x10000168
    1764:	10000170 	.word	0x10000170
    1768:	1000016c 	.word	0x1000016c
    176c:	10000164 	.word	0x10000164
    1770:	2009c098 	.word	0x2009c098
    1774:	2009c09c 	.word	0x2009c09c

Disassembly of section .text.delay:

00001778 <delay>:
*/

#include "delay.h"

void delay(u32 delayval) {
	asm volatile (
    1778:	3801      	subs	r0, #1
    177a:	f47f affd 	bne.w	1778 <delay>
    177e:	4770      	bx	lr

Disassembly of section .text.uart1_Init:

00001780 <uart1_Init>:
// Descrio: 	Incializa e configura o modo de trabalho da UART
// Parametros:	baudrate: 
//					1200, 2400, ... , 57600, 115200 ...
// Retorna:		retorna pdPASS se iniciliazou sem problemas ou retorna cdigo de erro
// -------------------------------------------------------------------------------------------------------------------
int uart1_Init(u32 baudrate) {
    1780:	b5f8      	push	{r3, r4, r5, r6, r7, lr}
	u32 f_div;
	
  	PCONP |= PCUART1;											// Ligar a uart no controle de potencia. Tem que ser antes da configurao, pois aps ligar o perifricos, seus regs assumem valores padres
    1782:	4b25      	ldr	r3, [pc, #148]	; (1818 <uart1_Init+0x98>)
	U1_CTS_DIR &= ~U1_CTS; 				// Pino CTS como entrada
	U1_RTS_DIR |= U1_RTS; 				// Pino RTS como sada
	uart1_RTSon(); 						// Sinaliza que posso receber dados
	#endif

  	U1IER = 0;   	                      						// Desabilita todas as fonte de interrupes da uart
    1784:	4c25      	ldr	r4, [pc, #148]	; (181c <uart1_Init+0x9c>)
// Retorna:		retorna pdPASS se iniciliazou sem problemas ou retorna cdigo de erro
// -------------------------------------------------------------------------------------------------------------------
int uart1_Init(u32 baudrate) {
	u32 f_div;
	
  	PCONP |= PCUART1;											// Ligar a uart no controle de potencia. Tem que ser antes da configurao, pois aps ligar o perifricos, seus regs assumem valores padres
    1786:	681a      	ldr	r2, [r3, #0]
	U1_CTS_DIR &= ~U1_CTS; 				// Pino CTS como entrada
	U1_RTS_DIR |= U1_RTS; 				// Pino RTS como sada
	uart1_RTSon(); 						// Sinaliza que posso receber dados
	#endif

  	U1IER = 0;   	                      						// Desabilita todas as fonte de interrupes da uart
    1788:	2600      	movs	r6, #0
// Retorna:		retorna pdPASS se iniciliazou sem problemas ou retorna cdigo de erro
// -------------------------------------------------------------------------------------------------------------------
int uart1_Init(u32 baudrate) {
	u32 f_div;
	
  	PCONP |= PCUART1;											// Ligar a uart no controle de potencia. Tem que ser antes da configurao, pois aps ligar o perifricos, seus regs assumem valores padres
    178a:	f042 0210 	orr.w	r2, r2, #16
    178e:	601a      	str	r2, [r3, #0]
  		U1_PINSEL1 = (U1_PINSEL1 & ~U1_PINMASK1) | U1_PINS1;	// Configura os pinos do uC para a funo UART.
  	#endif
	#endif // arm7tdmi

  	#if defined(cortexm3)
	uart1_ConfigPort();
    1790:	4b23      	ldr	r3, [pc, #140]	; (1820 <uart1_Init+0xa0>)
	uart1_RTSon(); 						// Sinaliza que posso receber dados
	#endif

  	U1IER = 0;   	                      						// Desabilita todas as fonte de interrupes da uart
  	U1IIR;                                						// Limpa os identificadores de pendencia interrupes da uart
  	U1FCR = (U1FCR_TX_FIFO_RESET | U1FCR_RX_FIFO_RESET);		// Limpa TX e RX FIFOS
    1792:	2706      	movs	r7, #6
  		U1_PINSEL1 = (U1_PINSEL1 & ~U1_PINMASK1) | U1_PINS1;	// Configura os pinos do uC para a funo UART.
  	#endif
	#endif // arm7tdmi

  	#if defined(cortexm3)
	uart1_ConfigPort();
    1794:	681a      	ldr	r2, [r3, #0]

  	U1IER = 0;   	                      						// Desabilita todas as fonte de interrupes da uart
  	U1IIR;                                						// Limpa os identificadores de pendencia interrupes da uart
  	U1FCR = (U1FCR_TX_FIFO_RESET | U1FCR_RX_FIFO_RESET);		// Limpa TX e RX FIFOS
  	
  	U1LCR = U1LCR_DLAB_ENABLE;             						// Seleciona os latches de devises para ajusta do baudrate
    1796:	2180      	movs	r1, #128	; 0x80
  		U1_PINSEL1 = (U1_PINSEL1 & ~U1_PINMASK1) | U1_PINS1;	// Configura os pinos do uC para a funo UART.
  	#endif
	#endif // arm7tdmi

  	#if defined(cortexm3)
	uart1_ConfigPort();
    1798:	f042 4280 	orr.w	r2, r2, #1073741824	; 0x40000000
    179c:	601a      	str	r2, [r3, #0]
    179e:	685a      	ldr	r2, [r3, #4]
    17a0:	f042 0201 	orr.w	r2, r2, #1
    17a4:	605a      	str	r2, [r3, #4]
	U1_RTS_DIR |= U1_RTS; 				// Pino RTS como sada
	uart1_RTSon(); 						// Sinaliza que posso receber dados
	#endif

  	U1IER = 0;   	                      						// Desabilita todas as fonte de interrupes da uart
  	U1IIR;                                						// Limpa os identificadores de pendencia interrupes da uart
    17a6:	4b1f      	ldr	r3, [pc, #124]	; (1824 <uart1_Init+0xa4>)
	U1_CTS_DIR &= ~U1_CTS; 				// Pino CTS como entrada
	U1_RTS_DIR |= U1_RTS; 				// Pino RTS como sada
	uart1_RTSon(); 						// Sinaliza que posso receber dados
	#endif

  	U1IER = 0;   	                      						// Desabilita todas as fonte de interrupes da uart
    17a8:	6026      	str	r6, [r4, #0]
  	U1IIR;                                						// Limpa os identificadores de pendencia interrupes da uart
    17aa:	681a      	ldr	r2, [r3, #0]
  	U1FCR = (U1FCR_TX_FIFO_RESET | U1FCR_RX_FIFO_RESET);		// Limpa TX e RX FIFOS
  	
  	U1LCR = U1LCR_DLAB_ENABLE;             						// Seleciona os latches de devises para ajusta do baudrate
    17ac:	4a1e      	ldr	r2, [pc, #120]	; (1828 <uart1_Init+0xa8>)
	uart1_RTSon(); 						// Sinaliza que posso receber dados
	#endif

  	U1IER = 0;   	                      						// Desabilita todas as fonte de interrupes da uart
  	U1IIR;                                						// Limpa os identificadores de pendencia interrupes da uart
  	U1FCR = (U1FCR_TX_FIFO_RESET | U1FCR_RX_FIFO_RESET);		// Limpa TX e RX FIFOS
    17ae:	601f      	str	r7, [r3, #0]
  	
  	U1LCR = U1LCR_DLAB_ENABLE;             						// Seleciona os latches de devises para ajusta do baudrate
    17b0:	6011      	str	r1, [r2, #0]
  	f_div = ( PCLK / 16 ) / baudrate ;							// Calcular divisor para o baudrate
    17b2:	491e      	ldr	r1, [pc, #120]	; (182c <uart1_Init+0xac>)
    17b4:	fbb1 f0f0 	udiv	r0, r1, r0
  	U1DLL = f_div%256;              							// Ajusta o baudrate byte baixo
    17b8:	491d      	ldr	r1, [pc, #116]	; (1830 <uart1_Init+0xb0>)
    17ba:	b2c5      	uxtb	r5, r0
  	U1DLM = f_div/256;       									// Ajusta o baudrate byte alto
    17bc:	0a00      	lsrs	r0, r0, #8
  	U1IIR;                                						// Limpa os identificadores de pendencia interrupes da uart
  	U1FCR = (U1FCR_TX_FIFO_RESET | U1FCR_RX_FIFO_RESET);		// Limpa TX e RX FIFOS
  	
  	U1LCR = U1LCR_DLAB_ENABLE;             						// Seleciona os latches de devises para ajusta do baudrate
  	f_div = ( PCLK / 16 ) / baudrate ;							// Calcular divisor para o baudrate
  	U1DLL = f_div%256;              							// Ajusta o baudrate byte baixo
    17be:	600d      	str	r5, [r1, #0]
  	U1DLM = f_div/256;       									// Ajusta o baudrate byte alto
    17c0:	6020      	str	r0, [r4, #0]
  	U1LCR = (UART1_MODE & ~U1LCR_DLAB_ENABLE);					// Configura o modo de trabalho da uart e desativa o acesso aos registradores do baudrate
  	
  	U1FCR = UART1_FIFOMODE;										// Configura o modo de trabalho da FIFO
    17c2:	2501      	movs	r5, #1
  	
  	U1LCR = U1LCR_DLAB_ENABLE;             						// Seleciona os latches de devises para ajusta do baudrate
  	f_div = ( PCLK / 16 ) / baudrate ;							// Calcular divisor para o baudrate
  	U1DLL = f_div%256;              							// Ajusta o baudrate byte baixo
  	U1DLM = f_div/256;       									// Ajusta o baudrate byte alto
  	U1LCR = (UART1_MODE & ~U1LCR_DLAB_ENABLE);					// Configura o modo de trabalho da uart e desativa o acesso aos registradores do baudrate
    17c4:	2003      	movs	r0, #3
    17c6:	6010      	str	r0, [r2, #0]
  	
  	U1FCR = UART1_FIFOMODE;										// Configura o modo de trabalho da FIFO
    17c8:	601d      	str	r5, [r3, #0]

	U1RBR;                                						// Limpa o registrador de recepao de dados
    17ca:	680a      	ldr	r2, [r1, #0]
  	U1LSR;                                						// Limpa o registrador de estado de linha
    17cc:	4a19      	ldr	r2, [pc, #100]	; (1834 <uart1_Init+0xb4>)
  	if (!irq_Install(VIC_UART1, uart1_ISR, UART1_PRIO_LEVEL))
		return errIRQ_INSTALL;
	#endif

	#if defined (cortexm3)
	nvic_enableIRQ(VIC_UART1);
    17ce:	4638      	mov	r0, r7
  	U1LCR = (UART1_MODE & ~U1LCR_DLAB_ENABLE);					// Configura o modo de trabalho da uart e desativa o acesso aos registradores do baudrate
  	
  	U1FCR = UART1_FIFOMODE;										// Configura o modo de trabalho da FIFO

	U1RBR;                                						// Limpa o registrador de recepao de dados
  	U1LSR;                                						// Limpa o registrador de estado de linha
    17d0:	6812      	ldr	r2, [r2, #0]
	U1FCR = U1FCR_RX_FIFO_RESET;								// Limpa a FIFO de recepo
    17d2:	2202      	movs	r2, #2
    17d4:	601a      	str	r2, [r3, #0]
  	U1FCR = U1FCR_TX_FIFO_RESET;          						// Limpa a FIFO de transmisso
    17d6:	2204      	movs	r2, #4
    17d8:	601a      	str	r2, [r3, #0]
  	if (!irq_Install(VIC_UART1, uart1_ISR, UART1_PRIO_LEVEL))
		return errIRQ_INSTALL;
	#endif

	#if defined (cortexm3)
	nvic_enableIRQ(VIC_UART1);
    17da:	f7ff ff29 	bl	1630 <nvic_enableIRQ>
	nvic_setPriority(VIC_UART1, UART1_PRIO_LEVEL);
    17de:	4638      	mov	r0, r7
    17e0:	4629      	mov	r1, r5
    17e2:	f7ff ff3f 	bl	1664 <nvic_setPriority>
	#if (USE_MALLOC == pdON)
	u1_data_rx = malloc(UART1_RX_BUFFER_SIZE*sizeof(u8));
	u1_data_tx = malloc(UART1_TX_BUFFER_SIZE*sizeof(u8));
	#endif

	buffer_Init(&u1_buf_rx, u1_data_rx, UART1_RX_BUFFER_SIZE);
    17e6:	4814      	ldr	r0, [pc, #80]	; (1838 <uart1_Init+0xb8>)
    17e8:	4914      	ldr	r1, [pc, #80]	; (183c <uart1_Init+0xbc>)
    17ea:	f44f 7296 	mov.w	r2, #300	; 0x12c
    17ee:	f001 fa7c 	bl	2cea <buffer_Init>
	buffer_Init(&u1_buf_tx, u1_data_tx, UART1_TX_BUFFER_SIZE);
    17f2:	4813      	ldr	r0, [pc, #76]	; (1840 <uart1_Init+0xc0>)
    17f4:	4913      	ldr	r1, [pc, #76]	; (1844 <uart1_Init+0xc4>)
    17f6:	f44f 7296 	mov.w	r2, #300	; 0x12c
    17fa:	f001 fa76 	bl	2cea <buffer_Init>
		
	u1_overflow_rx = 0; 										// Limpa overflow do buffer de recepo
    17fe:	4b12      	ldr	r3, [pc, #72]	; (1848 <uart1_Init+0xc8>)
		
	U1IER |= U1IER_ERBFI;										// Habilita interrupo de dados prontos na recepo e CTI (SIMULADOR PROTEUS NO FUNCIONA CTI)
	U1IER &= ~U1IER_ETBEI;               						// Desabilita a interrupo de buffer vazio de transmisso
	
	return pdPASS;
}
    1800:	4628      	mov	r0, r5
	#endif

	buffer_Init(&u1_buf_rx, u1_data_rx, UART1_RX_BUFFER_SIZE);
	buffer_Init(&u1_buf_tx, u1_data_tx, UART1_TX_BUFFER_SIZE);
		
	u1_overflow_rx = 0; 										// Limpa overflow do buffer de recepo
    1802:	801e      	strh	r6, [r3, #0]
	u1_tx_running = pdFALSE;
    1804:	4b11      	ldr	r3, [pc, #68]	; (184c <uart1_Init+0xcc>)
    1806:	701e      	strb	r6, [r3, #0]
		
	U1IER |= U1IER_ERBFI;										// Habilita interrupo de dados prontos na recepo e CTI (SIMULADOR PROTEUS NO FUNCIONA CTI)
    1808:	6823      	ldr	r3, [r4, #0]
    180a:	432b      	orrs	r3, r5
    180c:	6023      	str	r3, [r4, #0]
	U1IER &= ~U1IER_ETBEI;               						// Desabilita a interrupo de buffer vazio de transmisso
    180e:	6823      	ldr	r3, [r4, #0]
    1810:	f023 0302 	bic.w	r3, r3, #2
    1814:	6023      	str	r3, [r4, #0]
	
	return pdPASS;
}
    1816:	bdf8      	pop	{r3, r4, r5, r6, r7, pc}
    1818:	400fc0c4 	.word	0x400fc0c4
    181c:	40010004 	.word	0x40010004
    1820:	4002c000 	.word	0x4002c000
    1824:	40010008 	.word	0x40010008
    1828:	4001000c 	.word	0x4001000c
    182c:	0017d784 	.word	0x0017d784
    1830:	40010000 	.word	0x40010000
    1834:	40010014 	.word	0x40010014
    1838:	100002a4 	.word	0x100002a4
    183c:	10000178 	.word	0x10000178
    1840:	100003dc 	.word	0x100003dc
    1844:	100002b0 	.word	0x100002b0
    1848:	10000176 	.word	0x10000176
    184c:	10000174 	.word	0x10000174

Disassembly of section .text.uart1_GetChar:

00001850 <uart1_GetChar>:
// Retorna:		pdPASS indicando que existe caractere recebido ou o cdigo do erro
// -------------------------------------------------------------------------------------------------------------------
int uart1_GetChar(u8 *ch) {
	int ret;

	if ( u1_buf_rx.size == 0 )								// Checa se o buffer de recepo ainda no foi criado
    1850:	4b0f      	ldr	r3, [pc, #60]	; (1890 <uart1_GetChar+0x40>)
// -------------------------------------------------------------------------------------------------------------------
// Descrio:	Captura o prximo byte recebido na UART
// Parametros: 	Ponteiro para da variavel char para o retorno do byte recebido
// Retorna:		pdPASS indicando que existe caractere recebido ou o cdigo do erro
// -------------------------------------------------------------------------------------------------------------------
int uart1_GetChar(u8 *ch) {
    1852:	b510      	push	{r4, lr}
	int ret;

	if ( u1_buf_rx.size == 0 )								// Checa se o buffer de recepo ainda no foi criado
    1854:	889a      	ldrh	r2, [r3, #4]
// -------------------------------------------------------------------------------------------------------------------
// Descrio:	Captura o prximo byte recebido na UART
// Parametros: 	Ponteiro para da variavel char para o retorno do byte recebido
// Retorna:		pdPASS indicando que existe caractere recebido ou o cdigo do erro
// -------------------------------------------------------------------------------------------------------------------
int uart1_GetChar(u8 *ch) {
    1856:	4604      	mov	r4, r0
	int ret;

	if ( u1_buf_rx.size == 0 )								// Checa se o buffer de recepo ainda no foi criado
    1858:	b292      	uxth	r2, r2
    185a:	b19a      	cbz	r2, 1884 <uart1_GetChar+0x34>
   		return errBUFFER_NO_EXIST;            				// Retorna indicando erro

	if ( u1_buf_rx.datalength ) {							// Checo de o buffer de recepo contm dados recebidos pela UART
    185c:	88db      	ldrh	r3, [r3, #6]
    185e:	b29b      	uxth	r3, r3
    1860:	b19b      	cbz	r3, 188a <uart1_GetChar+0x3a>
		U1IER &= ~U1IER_ERBFI;								// Desabilita interrupo de dados prontos na recepo e CTI (SIMULADOR PROTEUS NO FUNCIONA CTI)
    1862:	4b0c      	ldr	r3, [pc, #48]	; (1894 <uart1_GetChar+0x44>)
    1864:	681a      	ldr	r2, [r3, #0]
    1866:	f022 0201 	bic.w	r2, r2, #1
    186a:	601a      	str	r2, [r3, #0]
		nop();
    186c:	bf00      	nop
		*ch = buffer_GetFromFront(&u1_buf_rx);				// Captura os dados do inicio do buffer
    186e:	4808      	ldr	r0, [pc, #32]	; (1890 <uart1_GetChar+0x40>)
    1870:	f001 fa41 	bl	2cf6 <buffer_GetFromFront>
		U1IER |= U1IER_ERBFI;								// Habilita interrupo de dados prontos na recepo e CTI (SIMULADOR PROTEUS NO FUNCIONA CTI)
    1874:	4b07      	ldr	r3, [pc, #28]	; (1894 <uart1_GetChar+0x44>)
   		return errBUFFER_NO_EXIST;            				// Retorna indicando erro

	if ( u1_buf_rx.datalength ) {							// Checo de o buffer de recepo contm dados recebidos pela UART
		U1IER &= ~U1IER_ERBFI;								// Desabilita interrupo de dados prontos na recepo e CTI (SIMULADOR PROTEUS NO FUNCIONA CTI)
		nop();
		*ch = buffer_GetFromFront(&u1_buf_rx);				// Captura os dados do inicio do buffer
    1876:	7020      	strb	r0, [r4, #0]
		U1IER |= U1IER_ERBFI;								// Habilita interrupo de dados prontos na recepo e CTI (SIMULADOR PROTEUS NO FUNCIONA CTI)
    1878:	681a      	ldr	r2, [r3, #0]
		ret = pdPASS;
    187a:	2001      	movs	r0, #1

	if ( u1_buf_rx.datalength ) {							// Checo de o buffer de recepo contm dados recebidos pela UART
		U1IER &= ~U1IER_ERBFI;								// Desabilita interrupo de dados prontos na recepo e CTI (SIMULADOR PROTEUS NO FUNCIONA CTI)
		nop();
		*ch = buffer_GetFromFront(&u1_buf_rx);				// Captura os dados do inicio do buffer
		U1IER |= U1IER_ERBFI;								// Habilita interrupo de dados prontos na recepo e CTI (SIMULADOR PROTEUS NO FUNCIONA CTI)
    187c:	f042 0201 	orr.w	r2, r2, #1
    1880:	601a      	str	r2, [r3, #0]
    1882:	bd10      	pop	{r4, pc}
// -------------------------------------------------------------------------------------------------------------------
int uart1_GetChar(u8 *ch) {
	int ret;

	if ( u1_buf_rx.size == 0 )								// Checa se o buffer de recepo ainda no foi criado
   		return errBUFFER_NO_EXIST;            				// Retorna indicando erro
    1884:	f06f 000b 	mvn.w	r0, #11
    1888:	bd10      	pop	{r4, pc}
		nop();
		*ch = buffer_GetFromFront(&u1_buf_rx);				// Captura os dados do inicio do buffer
		U1IER |= U1IER_ERBFI;								// Habilita interrupo de dados prontos na recepo e CTI (SIMULADOR PROTEUS NO FUNCIONA CTI)
		ret = pdPASS;
	} else
		ret = errBUFFER_EMPTY;
    188a:	f06f 000a 	mvn.w	r0, #10

	return ret;
}
    188e:	bd10      	pop	{r4, pc}
    1890:	100002a4 	.word	0x100002a4
    1894:	40010004 	.word	0x40010004

Disassembly of section .text.uart1_ClearBufferRx:

00001898 <uart1_ClearBufferRx>:
// -----------------------------------------------------------------------------------------------------------------
// Descrio: 	Limpa o buffer e FIFO de recepo
// Parametros:	Nenhum
// Retorna:		Nada
// -----------------------------------------------------------------------------------------------------------------
void uart1_ClearBufferRx(void) {
    1898:	b508      	push	{r3, lr}
	U1IER &= ~U1IER_ERBFI;				// Desabilita interrupo de dados prontos na recepo e CTI (SIMULADOR PROTEUS NO FUNCIONA CTI)
    189a:	4b0a      	ldr	r3, [pc, #40]	; (18c4 <uart1_ClearBufferRx+0x2c>)
    189c:	681a      	ldr	r2, [r3, #0]
    189e:	f022 0201 	bic.w	r2, r2, #1
    18a2:	601a      	str	r2, [r3, #0]
	nop();
    18a4:	bf00      	nop
	u1_overflow_rx = 0; 				// Limpa overflow do buffer de recepo
    18a6:	4b08      	ldr	r3, [pc, #32]	; (18c8 <uart1_ClearBufferRx+0x30>)
    18a8:	2200      	movs	r2, #0
    18aa:	801a      	strh	r2, [r3, #0]
	U1FCR = U1FCR_RX_FIFO_RESET;		// Limpa RX FIFO
    18ac:	4b07      	ldr	r3, [pc, #28]	; (18cc <uart1_ClearBufferRx+0x34>)
    18ae:	2202      	movs	r2, #2
    18b0:	601a      	str	r2, [r3, #0]
	buffer_Clear(&u1_buf_rx);			// Limpa o buffer de recepo
    18b2:	4807      	ldr	r0, [pc, #28]	; (18d0 <uart1_ClearBufferRx+0x38>)
    18b4:	f001 fa65 	bl	2d82 <buffer_Clear>
	U1IER |= U1IER_ERBFI;				// Habilita interrupo de dados prontos na recepo e CTI (SIMULADOR PROTEUS NO FUNCIONA CTI)
    18b8:	4b02      	ldr	r3, [pc, #8]	; (18c4 <uart1_ClearBufferRx+0x2c>)
    18ba:	681a      	ldr	r2, [r3, #0]
    18bc:	f042 0201 	orr.w	r2, r2, #1
    18c0:	601a      	str	r2, [r3, #0]
    18c2:	bd08      	pop	{r3, pc}
    18c4:	40010004 	.word	0x40010004
    18c8:	10000176 	.word	0x10000176
    18cc:	40010008 	.word	0x40010008
    18d0:	100002a4 	.word	0x100002a4

Disassembly of section .text.uart1_PutChar:

000018d4 <uart1_PutChar>:
// Retorna:		Retorna pdPASS ou o cdigo de erro
// -------------------------------------------------------------------------------------------------------------------
int uart1_PutChar(n16 ch) {
	int sts;

	if ( u1_buf_tx.size == 0 )												// Checa se o buffer de transmisso ainda no foi criado
    18d4:	4b15      	ldr	r3, [pc, #84]	; (192c <uart1_PutChar+0x58>)
// -------------------------------------------------------------------------------------------------------------------
// Descrio:	Coloca um caractere na fila de transmisso
// Parametros: 	Caractere a ser transmitindo
// Retorna:		Retorna pdPASS ou o cdigo de erro
// -------------------------------------------------------------------------------------------------------------------
int uart1_PutChar(n16 ch) {
    18d6:	b570      	push	{r4, r5, r6, lr}
	int sts;

	if ( u1_buf_tx.size == 0 )												// Checa se o buffer de transmisso ainda no foi criado
    18d8:	889b      	ldrh	r3, [r3, #4]
    18da:	b29b      	uxth	r3, r3
    18dc:	b303      	cbz	r3, 1920 <uart1_PutChar+0x4c>
	//  obrigatrio incluirmos o char no buffer, mesmo que vamos retir-lo logo em seguida caso u3_tx_running for FALSE
	//	Se no for dessa forma o e usar U3THR = ch haver erro de sincronismo entre os dados chegas e dados enviados.
	// Isto porque o manipulador de interrupo (uart3_ISR) pode atender a mais de uma interrupo simulataneas

	do {
		U1IER &= ~U1IER_ETBEI;                 								// Desativa a interrupo de transmisso
    18de:	4c14      	ldr	r4, [pc, #80]	; (1930 <uart1_PutChar+0x5c>)
		nop();
		sts = buffer_AddToEnd(&u1_buf_tx, ch);
    18e0:	b2c6      	uxtb	r6, r0
	//  obrigatrio incluirmos o char no buffer, mesmo que vamos retir-lo logo em seguida caso u3_tx_running for FALSE
	//	Se no for dessa forma o e usar U3THR = ch haver erro de sincronismo entre os dados chegas e dados enviados.
	// Isto porque o manipulador de interrupo (uart3_ISR) pode atender a mais de uma interrupo simulataneas

	do {
		U1IER &= ~U1IER_ETBEI;                 								// Desativa a interrupo de transmisso
    18e2:	6823      	ldr	r3, [r4, #0]
    18e4:	f023 0302 	bic.w	r3, r3, #2
    18e8:	6023      	str	r3, [r4, #0]
		nop();
    18ea:	bf00      	nop
		sts = buffer_AddToEnd(&u1_buf_tx, ch);
    18ec:	480f      	ldr	r0, [pc, #60]	; (192c <uart1_PutChar+0x58>)
    18ee:	4631      	mov	r1, r6
    18f0:	f001 fa23 	bl	2d3a <buffer_AddToEnd>
		U1IER |= U1IER_ETBEI;                  								// Habilita a interrupo de transmisso
    18f4:	6823      	ldr	r3, [r4, #0]

		CRITICAL_WAIT;														// Caso exista algum OS, pode trocar de contexto
	} while (sts == errBUFFER_FULL);
    18f6:	300a      	adds	r0, #10

	do {
		U1IER &= ~U1IER_ETBEI;                 								// Desativa a interrupo de transmisso
		nop();
		sts = buffer_AddToEnd(&u1_buf_tx, ch);
		U1IER |= U1IER_ETBEI;                  								// Habilita a interrupo de transmisso
    18f8:	f043 0302 	orr.w	r3, r3, #2
    18fc:	4d0c      	ldr	r5, [pc, #48]	; (1930 <uart1_PutChar+0x5c>)
    18fe:	6023      	str	r3, [r4, #0]

		CRITICAL_WAIT;														// Caso exista algum OS, pode trocar de contexto
	} while (sts == errBUFFER_FULL);
    1900:	d0ef      	beq.n	18e2 <uart1_PutChar+0xe>

	if (!u1_tx_running) {													// Checa se existe dado sendo transmitido
    1902:	4c0c      	ldr	r4, [pc, #48]	; (1934 <uart1_PutChar+0x60>)
    1904:	7823      	ldrb	r3, [r4, #0]
    1906:	b973      	cbnz	r3, 1926 <uart1_PutChar+0x52>
  		U1THR = buffer_GetFromFront(&u1_buf_tx);							// Atribui o dado do buffer ao registrador de transmisso
    1908:	4808      	ldr	r0, [pc, #32]	; (192c <uart1_PutChar+0x58>)
    190a:	f001 f9f4 	bl	2cf6 <buffer_GetFromFront>
    190e:	4b0a      	ldr	r3, [pc, #40]	; (1938 <uart1_PutChar+0x64>)
    1910:	6018      	str	r0, [r3, #0]
  		u1_tx_running = pdTRUE;												// Sinaliza que existe dado sendo trasnmitido
    1912:	2001      	movs	r0, #1
    1914:	7020      	strb	r0, [r4, #0]
  		U1IER |= U1IER_ETBEI;                  								// Habilita a interrupo de transmisso
    1916:	682b      	ldr	r3, [r5, #0]
    1918:	f043 0302 	orr.w	r3, r3, #2
    191c:	602b      	str	r3, [r5, #0]
    191e:	bd70      	pop	{r4, r5, r6, pc}
// -------------------------------------------------------------------------------------------------------------------
int uart1_PutChar(n16 ch) {
	int sts;

	if ( u1_buf_tx.size == 0 )												// Checa se o buffer de transmisso ainda no foi criado
   		return errBUFFER_NO_EXIST;                          				// Retorna indicando erro
    1920:	f06f 000b 	mvn.w	r0, #11
    1924:	bd70      	pop	{r4, r5, r6, pc}
  		U1THR = buffer_GetFromFront(&u1_buf_tx);							// Atribui o dado do buffer ao registrador de transmisso
  		u1_tx_running = pdTRUE;												// Sinaliza que existe dado sendo trasnmitido
  		U1IER |= U1IER_ETBEI;                  								// Habilita a interrupo de transmisso
   	}

  	return pdPASS;
    1926:	2001      	movs	r0, #1
}
    1928:	bd70      	pop	{r4, r5, r6, pc}
    192a:	bf00      	nop
    192c:	100003dc 	.word	0x100003dc
    1930:	40010004 	.word	0x40010004
    1934:	10000174 	.word	0x10000174
    1938:	40010000 	.word	0x40010000

Disassembly of section .text.uart1_SpaceTx:

0000193c <uart1_SpaceTx>:
// Retorna:		O tamanho em bytes do espao disponivel para transmisso
// -------------------------------------------------------------------------------------------------------------------
u16 uart1_SpaceTx(void) {
	u16 qtd;
	
	U1IER &= ~U1IER_ETBEI;                 								// Desativa a interrupo de transmisso
    193c:	4b08      	ldr	r3, [pc, #32]	; (1960 <uart1_SpaceTx+0x24>)
    193e:	681a      	ldr	r2, [r3, #0]
    1940:	f022 0202 	bic.w	r2, r2, #2
    1944:	601a      	str	r2, [r3, #0]
	nop();
    1946:	bf00      	nop
	qtd = (u16)(u1_buf_tx.size - u1_buf_tx.datalength);					// Retorna com o espao disponivel
    1948:	4b06      	ldr	r3, [pc, #24]	; (1964 <uart1_SpaceTx+0x28>)
    194a:	8898      	ldrh	r0, [r3, #4]
    194c:	88da      	ldrh	r2, [r3, #6]
	U1IER |= U1IER_ETBEI;                  								// Habilita a interrupo de transmisso
    194e:	4b04      	ldr	r3, [pc, #16]	; (1960 <uart1_SpaceTx+0x24>)
u16 uart1_SpaceTx(void) {
	u16 qtd;
	
	U1IER &= ~U1IER_ETBEI;                 								// Desativa a interrupo de transmisso
	nop();
	qtd = (u16)(u1_buf_tx.size - u1_buf_tx.datalength);					// Retorna com o espao disponivel
    1950:	1a80      	subs	r0, r0, r2
	U1IER |= U1IER_ETBEI;                  								// Habilita a interrupo de transmisso
    1952:	6819      	ldr	r1, [r3, #0]
	return qtd;
}
    1954:	b280      	uxth	r0, r0
	u16 qtd;
	
	U1IER &= ~U1IER_ETBEI;                 								// Desativa a interrupo de transmisso
	nop();
	qtd = (u16)(u1_buf_tx.size - u1_buf_tx.datalength);					// Retorna com o espao disponivel
	U1IER |= U1IER_ETBEI;                  								// Habilita a interrupo de transmisso
    1956:	f041 0102 	orr.w	r1, r1, #2
    195a:	6019      	str	r1, [r3, #0]
	return qtd;
}
    195c:	4770      	bx	lr
    195e:	bf00      	nop
    1960:	40010004 	.word	0x40010004
    1964:	100003dc 	.word	0x100003dc

Disassembly of section .text.uart1_EmptyTx:

00001968 <uart1_EmptyTx>:
// Parametros: 	Nenhum
// Retorna:		pdFALSE = Se o registradores U0THR ou U0TSR no esto vazios
//				pdTRUE = Se o registradores U0THR ou U0TSR esto vazios
// -------------------------------------------------------------------------------------------------------------------
int uart1_EmptyTx(void) {
  	if ((U1LSR & (U1LSR_THRE | U1LSR_TEMT)) == (U1LSR_THRE | U1LSR_TEMT))
    1968:	4b04      	ldr	r3, [pc, #16]	; (197c <uart1_EmptyTx+0x14>)
    196a:	6818      	ldr	r0, [r3, #0]
    196c:	f000 0060 	and.w	r0, r0, #96	; 0x60
  			return pdTRUE;
  	else	return pdFALSE;
}
    1970:	f1b0 0260 	subs.w	r2, r0, #96	; 0x60
    1974:	4250      	negs	r0, r2
    1976:	4150      	adcs	r0, r2
    1978:	4770      	bx	lr
    197a:	bf00      	nop
    197c:	40010014 	.word	0x40010014

Disassembly of section .text.uart1_WriteTx:

00001980 <uart1_WriteTx>:
// Descrio:	Adiociona N caracteres no buffer de transmisso
// Parametros: 	Ponteiro do buffer 
//				Quantidade de caracteres as serem transmitidos
// Retorna:		pdPASS = Transmitido com sucesso ou o cdigo do erro
// -------------------------------------------------------------------------------------------------------------------
int uart1_WriteTx(u8 *buffer, u16 count) {
    1980:	b538      	push	{r3, r4, r5, lr}
    1982:	460c      	mov	r4, r1
    1984:	4605      	mov	r5, r0
	if (count > uart1_SpaceTx())									// Checa se exste espao suficiente no buffer de TX de espao insuficiente
    1986:	f7ff ffd9 	bl	193c <uart1_SpaceTx>
    198a:	4284      	cmp	r4, r0
    198c:	d904      	bls.n	1998 <uart1_WriteTx+0x18>
   		return errBUFFER_FULL;										// Retorna cheio
    198e:	f06f 0009 	mvn.w	r0, #9
    1992:	bd38      	pop	{r3, r4, r5, pc}
  	
  	while (count && (uart1_PutChar(*buffer++) >= 0))				// Faa enquanto tem dados a serem transmitidos
    	count--;
    1994:	3c01      	subs	r4, #1
    1996:	b2a4      	uxth	r4, r4
// -------------------------------------------------------------------------------------------------------------------
int uart1_WriteTx(u8 *buffer, u16 count) {
	if (count > uart1_SpaceTx())									// Checa se exste espao suficiente no buffer de TX de espao insuficiente
   		return errBUFFER_FULL;										// Retorna cheio
  	
  	while (count && (uart1_PutChar(*buffer++) >= 0))				// Faa enquanto tem dados a serem transmitidos
    1998:	b134      	cbz	r4, 19a8 <uart1_WriteTx+0x28>
    199a:	f815 0b01 	ldrb.w	r0, [r5], #1
    199e:	f7ff ff99 	bl	18d4 <uart1_PutChar>
    19a2:	2800      	cmp	r0, #0
    19a4:	daf6      	bge.n	1994 <uart1_WriteTx+0x14>
    19a6:	e7f2      	b.n	198e <uart1_WriteTx+0xe>
    	count--;

  	return (count ? errBUFFER_FULL : pdPASS); 						// Se count = 0 retorna 0 (Sucesso) seno retorna -2 (erro)
    19a8:	2001      	movs	r0, #1
}
    19aa:	bd38      	pop	{r3, r4, r5, pc}

Disassembly of section .text.uart1_ISR:

000019ac <uart1_ISR>:
//###################################################################################################################
// UART SERVIO DE INTERRUPES
// 		Descrio: 	Esta funo implementa o ISR da UART1
//###################################################################################################################
//###################################################################################################################
void uart1_ISR (void) {
    19ac:	b5f8      	push	{r3, r4, r5, r6, r7, lr}
	ISR_ENTRY;																// Procedimento para entrada da interrupo

  	u8 int_flags;

  	while ( !((int_flags = U1IIR) & U1IIR_NO_INT) ) {							// Faa para todos os pedidos de interrupo pendentes emitidos pela UART
    19ae:	4e23      	ldr	r6, [pc, #140]	; (1a3c <uart1_ISR+0x90>)
        	// no alcanar o nvel do trigger os dados da FIFO sero adicionados
        	// ao buffer de recepo pela interrupo de timerout da UART (U3IIR_CTI_INT)
      	case U1IIR_CTI_INT:                									// Character Timeout Indicator. Dados na FIFO RX que no foram lidos e est abaixo do nvel de gatilho de int
      	case U1IIR_RDA_INT:                									// Caso que exista bytes disponivel recepo
     		do { 
      			if (buffer_AddToEnd(&u1_buf_rx, U1RBR) == errBUFFER_FULL)
    19b0:	4c23      	ldr	r4, [pc, #140]	; (1a40 <uart1_ISR+0x94>)
void uart1_ISR (void) {
	ISR_ENTRY;																// Procedimento para entrada da interrupo

  	u8 int_flags;

  	while ( !((int_flags = U1IIR) & U1IIR_NO_INT) ) {							// Faa para todos os pedidos de interrupo pendentes emitidos pela UART
    19b2:	6833      	ldr	r3, [r6, #0]
    19b4:	07da      	lsls	r2, r3, #31
    19b6:	d43c      	bmi.n	1a32 <uart1_ISR+0x86>
    	switch (int_flags & U1IIR_ID_MASK) {									// Identifica a fonte de interrupo
    19b8:	f003 030e 	and.w	r3, r3, #14
    19bc:	2b0c      	cmp	r3, #12
    19be:	d832      	bhi.n	1a26 <uart1_ISR+0x7a>
    19c0:	e8df f003 	tbb	[pc, r3]
    19c4:	312c3134 	.word	0x312c3134
    19c8:	31073109 	.word	0x31073109
    19cc:	31313131 	.word	0x31313131
    19d0:	09          	.byte	0x09
    19d1:	00          	.byte	0x00
    	case U1IIR_RLS_INT:                									// Caso recebeu uma INT de erro na linha de recepo (receive line status)
        	U1LSR;                         									// Limpa registrador de status de linha
    19d2:	4b1c      	ldr	r3, [pc, #112]	; (1a44 <uart1_ISR+0x98>)
    19d4:	e02b      	b.n	1a2e <uart1_ISR+0x82>
        	// ao buffer de recepo pela interrupo de timerout da UART (U3IIR_CTI_INT)
      	case U1IIR_CTI_INT:                									// Character Timeout Indicator. Dados na FIFO RX que no foram lidos e est abaixo do nvel de gatilho de int
      	case U1IIR_RDA_INT:                									// Caso que exista bytes disponivel recepo
     		do { 
      			if (buffer_AddToEnd(&u1_buf_rx, U1RBR) == errBUFFER_FULL)
					u1_overflow_rx++;
    19d6:	4d1c      	ldr	r5, [pc, #112]	; (1a48 <uart1_ISR+0x9c>)
      		} while(U1LSR & U1LSR_RDR);										// Faa enquanto existe dados validos na FIFO de recepo
    19d8:	4f1a      	ldr	r7, [pc, #104]	; (1a44 <uart1_ISR+0x98>)
        	// no alcanar o nvel do trigger os dados da FIFO sero adicionados
        	// ao buffer de recepo pela interrupo de timerout da UART (U3IIR_CTI_INT)
      	case U1IIR_CTI_INT:                									// Character Timeout Indicator. Dados na FIFO RX que no foram lidos e est abaixo do nvel de gatilho de int
      	case U1IIR_RDA_INT:                									// Caso que exista bytes disponivel recepo
     		do { 
      			if (buffer_AddToEnd(&u1_buf_rx, U1RBR) == errBUFFER_FULL)
    19da:	6821      	ldr	r1, [r4, #0]
    19dc:	481b      	ldr	r0, [pc, #108]	; (1a4c <uart1_ISR+0xa0>)
    19de:	b2c9      	uxtb	r1, r1
    19e0:	f001 f9ab 	bl	2d3a <buffer_AddToEnd>
    19e4:	300a      	adds	r0, #10
    19e6:	d103      	bne.n	19f0 <uart1_ISR+0x44>
					u1_overflow_rx++;
    19e8:	882b      	ldrh	r3, [r5, #0]
    19ea:	3301      	adds	r3, #1
    19ec:	b29b      	uxth	r3, r3
    19ee:	802b      	strh	r3, [r5, #0]
      		} while(U1LSR & U1LSR_RDR);										// Faa enquanto existe dados validos na FIFO de recepo
    19f0:	683b      	ldr	r3, [r7, #0]
    19f2:	07d8      	lsls	r0, r3, #31
    19f4:	d4f1      	bmi.n	19da <uart1_ISR+0x2e>
    19f6:	e7dc      	b.n	19b2 <uart1_ISR+0x6>
     	// RETIRA OS DADOS DO BUFFER TX PARA A FIFO DE TRANSMISSO
     		// Essa interrupo  gerada quando a FIFO de transmisso de 16 bytes est vazia
			// O registrador UxTHR  o topo da FIFO de 16 bytes, ou seja,  o endereo da ltima posio a ser inserida da FIFO
      	case U1IIR_THRE_INT:              									// Interrupo da FIFO de 16 bytes quando est vazia
        	while (U1LSR & U1LSR_THRE) {									// Faa enquanto h espao na FIFO
        		if (buffer_IsEmpty(&u1_buf_tx) ) {						 	// Checa se o buffer de transmisso j est vazio
    19f8:	4815      	ldr	r0, [pc, #84]	; (1a50 <uart1_ISR+0xa4>)
    19fa:	f001 f9bb 	bl	2d74 <buffer_IsEmpty>
    19fe:	b140      	cbz	r0, 1a12 <uart1_ISR+0x66>
        			u1_tx_running = pdFALSE;   								// Sinaliza que no existe dados para trasnmissao
    1a00:	4b14      	ldr	r3, [pc, #80]	; (1a54 <uart1_ISR+0xa8>)
    1a02:	2200      	movs	r2, #0
    1a04:	701a      	strb	r2, [r3, #0]
        			U1IER &= ~U1IER_ETBEI;                					// Desativa a interrupo de transmisso
    1a06:	4b14      	ldr	r3, [pc, #80]	; (1a58 <uart1_ISR+0xac>)
    1a08:	681a      	ldr	r2, [r3, #0]
    1a0a:	f022 0202 	bic.w	r2, r2, #2
    1a0e:	601a      	str	r2, [r3, #0]
         			break;
    1a10:	e7cf      	b.n	19b2 <uart1_ISR+0x6>
        		} else {
					#if (UART1_USE_HANDSHAKING == pdON) // AINDA NO TESTADO
	    			if (uart1_CTS()) // Checa se o receptor esteja pronto para eviar dados
					#endif     			
        				U1THR = buffer_GetFromFront(&u1_buf_tx);			// Atribui o dado do buffer ao registrador de transmisso
    1a12:	480f      	ldr	r0, [pc, #60]	; (1a50 <uart1_ISR+0xa4>)
    1a14:	f001 f96f 	bl	2cf6 <buffer_GetFromFront>
    1a18:	6020      	str	r0, [r4, #0]
    1a1a:	e000      	b.n	1a1e <uart1_ISR+0x72>

     	// RETIRA OS DADOS DO BUFFER TX PARA A FIFO DE TRANSMISSO
     		// Essa interrupo  gerada quando a FIFO de transmisso de 16 bytes est vazia
			// O registrador UxTHR  o topo da FIFO de 16 bytes, ou seja,  o endereo da ltima posio a ser inserida da FIFO
      	case U1IIR_THRE_INT:              									// Interrupo da FIFO de 16 bytes quando est vazia
        	while (U1LSR & U1LSR_THRE) {									// Faa enquanto h espao na FIFO
    1a1c:	4d09      	ldr	r5, [pc, #36]	; (1a44 <uart1_ISR+0x98>)
    1a1e:	682b      	ldr	r3, [r5, #0]
    1a20:	0699      	lsls	r1, r3, #26
    1a22:	d4e9      	bmi.n	19f8 <uart1_ISR+0x4c>
    1a24:	e7c5      	b.n	19b2 <uart1_ISR+0x6>
      	case U1IIR_MS_INT:                 									// MODEM Status
        	U1MSR;                          								// Limpa o registrador de status do modem
        	break;

      	default:															// Interrupo desconhecida
        	U1LSR;															// Limpa registrador de status de linha
    1a26:	4b07      	ldr	r3, [pc, #28]	; (1a44 <uart1_ISR+0x98>)
    1a28:	681b      	ldr	r3, [r3, #0]
        	U1RBR;															// Limpa o registrador de recepao de dados
    1a2a:	6823      	ldr	r3, [r4, #0]
        	U1MSR;															// Limpa o registrador de status do modem
    1a2c:	4b0b      	ldr	r3, [pc, #44]	; (1a5c <uart1_ISR+0xb0>)
    1a2e:	681b      	ldr	r3, [r3, #0]
        	break;
    1a30:	e7bf      	b.n	19b2 <uart1_ISR+0x6>
  	// Limpa interrupo
  	#if defined(arm7tdmi)
  	VICSoftIntClr = (1<<VIC_UART1);
	#endif
	#if defined (cortexm3)
	nvic_clearPendingIRQ(VIC_UART1);
    1a32:	2006      	movs	r0, #6
	#endif

  	ISR_EXIT;																// Procedimento para saida da interrupo
}
    1a34:	e8bd 40f8 	ldmia.w	sp!, {r3, r4, r5, r6, r7, lr}
  	// Limpa interrupo
  	#if defined(arm7tdmi)
  	VICSoftIntClr = (1<<VIC_UART1);
	#endif
	#if defined (cortexm3)
	nvic_clearPendingIRQ(VIC_UART1);
    1a38:	f7ff be08 	b.w	164c <nvic_clearPendingIRQ>
    1a3c:	40010008 	.word	0x40010008
    1a40:	40010000 	.word	0x40010000
    1a44:	40010014 	.word	0x40010014
    1a48:	10000176 	.word	0x10000176
    1a4c:	100002a4 	.word	0x100002a4
    1a50:	100003dc 	.word	0x100003dc
    1a54:	10000174 	.word	0x10000174
    1a58:	40010004 	.word	0x40010004
    1a5c:	40010018 	.word	0x40010018

Disassembly of section .text.uart3_SetBaudrate:

00001a60 <uart3_SetBaudrate>:
}

// ATENO: H libs externas que precisam ajustar a baudrate em runtime
void uart3_SetBaudrate(u32 baudrate) {
	u32 f_div;
  	U3LCR = U3LCR_DLAB_ENABLE;             						// Seleciona os latches de devises para ajusta do baudrate
    1a60:	4b06      	ldr	r3, [pc, #24]	; (1a7c <uart3_SetBaudrate+0x1c>)
    1a62:	2280      	movs	r2, #128	; 0x80
    1a64:	601a      	str	r2, [r3, #0]
  	f_div = ( PCLK / 16 ) / baudrate ;							// Calcular divisor para o baudrate
    1a66:	4a06      	ldr	r2, [pc, #24]	; (1a80 <uart3_SetBaudrate+0x20>)
    1a68:	fbb2 f0f0 	udiv	r0, r2, r0
  	U3DLL = f_div%256;              							// Ajusta o baudrate byte baixo
    1a6c:	4a05      	ldr	r2, [pc, #20]	; (1a84 <uart3_SetBaudrate+0x24>)
    1a6e:	b2c1      	uxtb	r1, r0
  	U3DLM = f_div/256;       									// Ajusta o baudrate byte alto
    1a70:	0a00      	lsrs	r0, r0, #8
// ATENO: H libs externas que precisam ajustar a baudrate em runtime
void uart3_SetBaudrate(u32 baudrate) {
	u32 f_div;
  	U3LCR = U3LCR_DLAB_ENABLE;             						// Seleciona os latches de devises para ajusta do baudrate
  	f_div = ( PCLK / 16 ) / baudrate ;							// Calcular divisor para o baudrate
  	U3DLL = f_div%256;              							// Ajusta o baudrate byte baixo
    1a72:	6011      	str	r1, [r2, #0]
  	U3DLM = f_div/256;       									// Ajusta o baudrate byte alto
    1a74:	6050      	str	r0, [r2, #4]
  	U3LCR = (UART3_MODE & ~U3LCR_DLAB_ENABLE);					// Configura o modo de trabalho da uart e desativa o acesso aos registradores do baudrate
    1a76:	2203      	movs	r2, #3
    1a78:	601a      	str	r2, [r3, #0]
    1a7a:	4770      	bx	lr
    1a7c:	4009c00c 	.word	0x4009c00c
    1a80:	0017d784 	.word	0x0017d784
    1a84:	4009c000 	.word	0x4009c000

Disassembly of section .text.uart3_Init:

00001a88 <uart3_Init>:
// Descrio: 	Incializa e configura o modo de trabalho da UART
// Parametros:	baudrate: 
//					1200, 2400, ... , 57600, 115200 ...
// Retorna:		retorna pdPASS se iniciliazou sem problemas ou retorna cdigo de erro
// -------------------------------------------------------------------------------------------------------------------
int uart3_Init(u32 baudrate) {
    1a88:	b5f8      	push	{r3, r4, r5, r6, r7, lr}
	PCONP |= PCUART3;											// Ligar a uart3 no controle de potencia. Tem que ser antes da configurao, pois aps ligar o perifricos, seus regs assumem valores padres
    1a8a:	4b1e      	ldr	r3, [pc, #120]	; (1b04 <uart3_Init+0x7c>)
	U3_CTS_DIR &= ~U3_CTS; 				// Pino CTS como entrada
	U3_RTS_DIR |= U3_RTS; 				// Pino RTS como sada
	uart3_RTSon(); 						// Sinaliza que posso receber dados
	#endif

  	U3IER = 0;   	                      						// Desabilita todas as fonte de interrupes da uart
    1a8c:	4c1e      	ldr	r4, [pc, #120]	; (1b08 <uart3_Init+0x80>)
// Parametros:	baudrate: 
//					1200, 2400, ... , 57600, 115200 ...
// Retorna:		retorna pdPASS se iniciliazou sem problemas ou retorna cdigo de erro
// -------------------------------------------------------------------------------------------------------------------
int uart3_Init(u32 baudrate) {
	PCONP |= PCUART3;											// Ligar a uart3 no controle de potencia. Tem que ser antes da configurao, pois aps ligar o perifricos, seus regs assumem valores padres
    1a8e:	681a      	ldr	r2, [r3, #0]
	U3_RTS_DIR |= U3_RTS; 				// Pino RTS como sada
	uart3_RTSon(); 						// Sinaliza que posso receber dados
	#endif

  	U3IER = 0;   	                      						// Desabilita todas as fonte de interrupes da uart
  	U3IIR;                                						// Limpa os identificadores de pendencia interrupes da uart
    1a90:	4d1e      	ldr	r5, [pc, #120]	; (1b0c <uart3_Init+0x84>)
// Parametros:	baudrate: 
//					1200, 2400, ... , 57600, 115200 ...
// Retorna:		retorna pdPASS se iniciliazou sem problemas ou retorna cdigo de erro
// -------------------------------------------------------------------------------------------------------------------
int uart3_Init(u32 baudrate) {
	PCONP |= PCUART3;											// Ligar a uart3 no controle de potencia. Tem que ser antes da configurao, pois aps ligar o perifricos, seus regs assumem valores padres
    1a92:	f042 7200 	orr.w	r2, r2, #33554432	; 0x2000000
    1a96:	601a      	str	r2, [r3, #0]
	#if defined(arm7tdmi)
	U3_PINSEL = (U3_PINSEL & ~U3_PINMASK) | U3_PINS;			// Configura os pinos do uC para a funo UART.
	#endif // arm7tdmi

	#if defined(cortexm3)
  	uart3_ConfigPort();
    1a98:	4b1d      	ldr	r3, [pc, #116]	; (1b10 <uart3_Init+0x88>)
	U3_CTS_DIR &= ~U3_CTS; 				// Pino CTS como entrada
	U3_RTS_DIR |= U3_RTS; 				// Pino RTS como sada
	uart3_RTSon(); 						// Sinaliza que posso receber dados
	#endif

  	U3IER = 0;   	                      						// Desabilita todas as fonte de interrupes da uart
    1a9a:	2600      	movs	r6, #0
	#if defined(arm7tdmi)
	U3_PINSEL = (U3_PINSEL & ~U3_PINMASK) | U3_PINS;			// Configura os pinos do uC para a funo UART.
	#endif // arm7tdmi

	#if defined(cortexm3)
  	uart3_ConfigPort();
    1a9c:	681a      	ldr	r2, [r3, #0]
  	U3IIR;                                						// Limpa os identificadores de pendencia interrupes da uart
  	U3FCR = (U3FCR_TX_FIFO_RESET | U3FCR_RX_FIFO_RESET);		// Limpa TX e RX FIFOS

	uart3_SetBaudrate(baudrate);
  	
  	U3FCR = UART3_FIFOMODE;										// Configura o modo de trabalho da FIFO
    1a9e:	2701      	movs	r7, #1
	#if defined(arm7tdmi)
	U3_PINSEL = (U3_PINSEL & ~U3_PINMASK) | U3_PINS;			// Configura os pinos do uC para a funo UART.
	#endif // arm7tdmi

	#if defined(cortexm3)
  	uart3_ConfigPort();
    1aa0:	f042 020a 	orr.w	r2, r2, #10
    1aa4:	601a      	str	r2, [r3, #0]
	U3_CTS_DIR &= ~U3_CTS; 				// Pino CTS como entrada
	U3_RTS_DIR |= U3_RTS; 				// Pino RTS como sada
	uart3_RTSon(); 						// Sinaliza que posso receber dados
	#endif

  	U3IER = 0;   	                      						// Desabilita todas as fonte de interrupes da uart
    1aa6:	6026      	str	r6, [r4, #0]
  	U3IIR;                                						// Limpa os identificadores de pendencia interrupes da uart
    1aa8:	682b      	ldr	r3, [r5, #0]
  	U3FCR = (U3FCR_TX_FIFO_RESET | U3FCR_RX_FIFO_RESET);		// Limpa TX e RX FIFOS
    1aaa:	2306      	movs	r3, #6
    1aac:	602b      	str	r3, [r5, #0]

	uart3_SetBaudrate(baudrate);
    1aae:	f7ff ffd7 	bl	1a60 <uart3_SetBaudrate>
  	
  	U3FCR = UART3_FIFOMODE;										// Configura o modo de trabalho da FIFO

	U3RBR;                                						// Limpa o registrador de recepao de dados
    1ab2:	4b18      	ldr	r3, [pc, #96]	; (1b14 <uart3_Init+0x8c>)
  	U3IIR;                                						// Limpa os identificadores de pendencia interrupes da uart
  	U3FCR = (U3FCR_TX_FIFO_RESET | U3FCR_RX_FIFO_RESET);		// Limpa TX e RX FIFOS

	uart3_SetBaudrate(baudrate);
  	
  	U3FCR = UART3_FIFOMODE;										// Configura o modo de trabalho da FIFO
    1ab4:	602f      	str	r7, [r5, #0]

	U3RBR;                                						// Limpa o registrador de recepao de dados
    1ab6:	681b      	ldr	r3, [r3, #0]
  	U3LSR;                                						// Limpa o registrador de estado de linha
    1ab8:	4b17      	ldr	r3, [pc, #92]	; (1b18 <uart3_Init+0x90>)
  	if (!irq_Install(VIC_UART3, uart3_ISR, UART3_PRIO_LEVEL))
		return errIRQ_INSTALL;
	#endif

	#if defined (cortexm3)
	nvic_enableIRQ(VIC_UART3);
    1aba:	2008      	movs	r0, #8
	uart3_SetBaudrate(baudrate);
  	
  	U3FCR = UART3_FIFOMODE;										// Configura o modo de trabalho da FIFO

	U3RBR;                                						// Limpa o registrador de recepao de dados
  	U3LSR;                                						// Limpa o registrador de estado de linha
    1abc:	681b      	ldr	r3, [r3, #0]
	U3FCR = U3FCR_RX_FIFO_RESET;								// Limpa a FIFO de recepo
    1abe:	2302      	movs	r3, #2
    1ac0:	602b      	str	r3, [r5, #0]
  	U3FCR = U3FCR_TX_FIFO_RESET;          						// Limpa a FIFO de transmisso
    1ac2:	2304      	movs	r3, #4
    1ac4:	602b      	str	r3, [r5, #0]
  	if (!irq_Install(VIC_UART3, uart3_ISR, UART3_PRIO_LEVEL))
		return errIRQ_INSTALL;
	#endif

	#if defined (cortexm3)
	nvic_enableIRQ(VIC_UART3);
    1ac6:	f7ff fdb3 	bl	1630 <nvic_enableIRQ>
	nvic_setPriority(VIC_UART3, UART3_PRIO_LEVEL);
    1aca:	2008      	movs	r0, #8
    1acc:	4631      	mov	r1, r6
    1ace:	f7ff fdc9 	bl	1664 <nvic_setPriority>
	#if (USE_MALLOC == pdON)
	u3_data_rx = malloc(UART3_RX_BUFFER_SIZE*sizeof(u8));
	u3_data_tx = malloc(UART3_TX_BUFFER_SIZE*sizeof(u8));
	#endif

	buffer_Init(&u3_buf_rx, u3_data_rx, UART3_RX_BUFFER_SIZE);
    1ad2:	4812      	ldr	r0, [pc, #72]	; (1b1c <uart3_Init+0x94>)
    1ad4:	4912      	ldr	r1, [pc, #72]	; (1b20 <uart3_Init+0x98>)
    1ad6:	f44f 7296 	mov.w	r2, #300	; 0x12c
    1ada:	f001 f906 	bl	2cea <buffer_Init>
	buffer_Init(&u3_buf_tx, u3_data_tx, UART3_TX_BUFFER_SIZE);
    1ade:	4811      	ldr	r0, [pc, #68]	; (1b24 <uart3_Init+0x9c>)
    1ae0:	4911      	ldr	r1, [pc, #68]	; (1b28 <uart3_Init+0xa0>)
    1ae2:	f44f 7296 	mov.w	r2, #300	; 0x12c
    1ae6:	f001 f900 	bl	2cea <buffer_Init>

	u3_overflow_rx = 0; 										// Limpa overflow do buffer de recepo
    1aea:	4b10      	ldr	r3, [pc, #64]	; (1b2c <uart3_Init+0xa4>)
		
	U3IER |= U3IER_ERBFI;										// Habilita interrupo de dados prontos na recepo e CTI (SIMULADOR PROTEUS NO FUNCIONA CTI)
	U3IER &= ~U3IER_ETBEI;                						// Desabilita a interrupo de buffer vazio de transmisso

	return pdPASS;
}
    1aec:	4638      	mov	r0, r7
	#endif

	buffer_Init(&u3_buf_rx, u3_data_rx, UART3_RX_BUFFER_SIZE);
	buffer_Init(&u3_buf_tx, u3_data_tx, UART3_TX_BUFFER_SIZE);

	u3_overflow_rx = 0; 										// Limpa overflow do buffer de recepo
    1aee:	801e      	strh	r6, [r3, #0]
	u3_tx_running = pdFALSE;
    1af0:	4b0f      	ldr	r3, [pc, #60]	; (1b30 <uart3_Init+0xa8>)
    1af2:	701e      	strb	r6, [r3, #0]
		
	U3IER |= U3IER_ERBFI;										// Habilita interrupo de dados prontos na recepo e CTI (SIMULADOR PROTEUS NO FUNCIONA CTI)
    1af4:	6823      	ldr	r3, [r4, #0]
    1af6:	433b      	orrs	r3, r7
    1af8:	6023      	str	r3, [r4, #0]
	U3IER &= ~U3IER_ETBEI;                						// Desabilita a interrupo de buffer vazio de transmisso
    1afa:	6823      	ldr	r3, [r4, #0]
    1afc:	f023 0302 	bic.w	r3, r3, #2
    1b00:	6023      	str	r3, [r4, #0]

	return pdPASS;
}
    1b02:	bdf8      	pop	{r3, r4, r5, r6, r7, pc}
    1b04:	400fc0c4 	.word	0x400fc0c4
    1b08:	4009c004 	.word	0x4009c004
    1b0c:	4009c008 	.word	0x4009c008
    1b10:	4002c000 	.word	0x4002c000
    1b14:	4009c000 	.word	0x4009c000
    1b18:	4009c014 	.word	0x4009c014
    1b1c:	10000650 	.word	0x10000650
    1b20:	100003f5 	.word	0x100003f5
    1b24:	100003e8 	.word	0x100003e8
    1b28:	10000521 	.word	0x10000521
    1b2c:	1000064e 	.word	0x1000064e
    1b30:	100003f4 	.word	0x100003f4

Disassembly of section .text.uart3_GetChar:

00001b34 <uart3_GetChar>:
// Retorna:		pdPASS indicando que existe caractere recebido ou o cdigo do erro
// -------------------------------------------------------------------------------------------------------------------
int uart3_GetChar(u8 *ch) {
	int ret;

	if ( u3_buf_rx.size == 0 )								// Checa se o buffer de recepo ainda no foi criado
    1b34:	4b0f      	ldr	r3, [pc, #60]	; (1b74 <uart3_GetChar+0x40>)
// -------------------------------------------------------------------------------------------------------------------
// Descrio:	Captura o prximo byte recebido na UART
// Parametros: 	Ponteiro para da variavel char para o retorno do byte recebido
// Retorna:		pdPASS indicando que existe caractere recebido ou o cdigo do erro
// -------------------------------------------------------------------------------------------------------------------
int uart3_GetChar(u8 *ch) {
    1b36:	b510      	push	{r4, lr}
	int ret;

	if ( u3_buf_rx.size == 0 )								// Checa se o buffer de recepo ainda no foi criado
    1b38:	889a      	ldrh	r2, [r3, #4]
// -------------------------------------------------------------------------------------------------------------------
// Descrio:	Captura o prximo byte recebido na UART
// Parametros: 	Ponteiro para da variavel char para o retorno do byte recebido
// Retorna:		pdPASS indicando que existe caractere recebido ou o cdigo do erro
// -------------------------------------------------------------------------------------------------------------------
int uart3_GetChar(u8 *ch) {
    1b3a:	4604      	mov	r4, r0
	int ret;

	if ( u3_buf_rx.size == 0 )								// Checa se o buffer de recepo ainda no foi criado
    1b3c:	b292      	uxth	r2, r2
    1b3e:	b19a      	cbz	r2, 1b68 <uart3_GetChar+0x34>
   		return errBUFFER_NO_EXIST;            				// Retorna indicando erro

	if ( u3_buf_rx.datalength ) {							// Checo de o buffer de recepo contm dados recebidos pela UART
    1b40:	88db      	ldrh	r3, [r3, #6]
    1b42:	b29b      	uxth	r3, r3
    1b44:	b19b      	cbz	r3, 1b6e <uart3_GetChar+0x3a>
		U3IER &= ~U3IER_ERBFI;								// Desabilita interrupo de dados prontos na recepo e CTI (SIMULADOR PROTEUS NO FUNCIONA CTI)
    1b46:	4b0c      	ldr	r3, [pc, #48]	; (1b78 <uart3_GetChar+0x44>)
    1b48:	681a      	ldr	r2, [r3, #0]
    1b4a:	f022 0201 	bic.w	r2, r2, #1
    1b4e:	601a      	str	r2, [r3, #0]
		nop();
    1b50:	bf00      	nop
		*ch = buffer_GetFromFront(&u3_buf_rx);				// Captura os dados do inicio do buffer
    1b52:	4808      	ldr	r0, [pc, #32]	; (1b74 <uart3_GetChar+0x40>)
    1b54:	f001 f8cf 	bl	2cf6 <buffer_GetFromFront>
		U3IER |= U3IER_ERBFI;								// Habilita interrupo de dados prontos na recepo e CTI (SIMULADOR PROTEUS NO FUNCIONA CTI)
    1b58:	4b07      	ldr	r3, [pc, #28]	; (1b78 <uart3_GetChar+0x44>)
   		return errBUFFER_NO_EXIST;            				// Retorna indicando erro

	if ( u3_buf_rx.datalength ) {							// Checo de o buffer de recepo contm dados recebidos pela UART
		U3IER &= ~U3IER_ERBFI;								// Desabilita interrupo de dados prontos na recepo e CTI (SIMULADOR PROTEUS NO FUNCIONA CTI)
		nop();
		*ch = buffer_GetFromFront(&u3_buf_rx);				// Captura os dados do inicio do buffer
    1b5a:	7020      	strb	r0, [r4, #0]
		U3IER |= U3IER_ERBFI;								// Habilita interrupo de dados prontos na recepo e CTI (SIMULADOR PROTEUS NO FUNCIONA CTI)
    1b5c:	681a      	ldr	r2, [r3, #0]
		ret = pdPASS;
    1b5e:	2001      	movs	r0, #1

	if ( u3_buf_rx.datalength ) {							// Checo de o buffer de recepo contm dados recebidos pela UART
		U3IER &= ~U3IER_ERBFI;								// Desabilita interrupo de dados prontos na recepo e CTI (SIMULADOR PROTEUS NO FUNCIONA CTI)
		nop();
		*ch = buffer_GetFromFront(&u3_buf_rx);				// Captura os dados do inicio do buffer
		U3IER |= U3IER_ERBFI;								// Habilita interrupo de dados prontos na recepo e CTI (SIMULADOR PROTEUS NO FUNCIONA CTI)
    1b60:	f042 0201 	orr.w	r2, r2, #1
    1b64:	601a      	str	r2, [r3, #0]
    1b66:	bd10      	pop	{r4, pc}
// -------------------------------------------------------------------------------------------------------------------
int uart3_GetChar(u8 *ch) {
	int ret;

	if ( u3_buf_rx.size == 0 )								// Checa se o buffer de recepo ainda no foi criado
   		return errBUFFER_NO_EXIST;            				// Retorna indicando erro
    1b68:	f06f 000b 	mvn.w	r0, #11
    1b6c:	bd10      	pop	{r4, pc}
		nop();
		*ch = buffer_GetFromFront(&u3_buf_rx);				// Captura os dados do inicio do buffer
		U3IER |= U3IER_ERBFI;								// Habilita interrupo de dados prontos na recepo e CTI (SIMULADOR PROTEUS NO FUNCIONA CTI)
		ret = pdPASS;
	} else
		ret = errBUFFER_EMPTY;
    1b6e:	f06f 000a 	mvn.w	r0, #10

	return ret;
}
    1b72:	bd10      	pop	{r4, pc}
    1b74:	10000650 	.word	0x10000650
    1b78:	4009c004 	.word	0x4009c004

Disassembly of section .text.uart3_ClearBufferRx:

00001b7c <uart3_ClearBufferRx>:
// -----------------------------------------------------------------------------------------------------------------
// Descrio: 	Limpa o buffer e FIFO de recepo
// Parametros:	Nenhum
// Retorna:		Nada
// -----------------------------------------------------------------------------------------------------------------
void uart3_ClearBufferRx(void) {
    1b7c:	b508      	push	{r3, lr}
	U3IER &= ~U3IER_ERBFI;				// Desabilita interrupo de dados prontos na recepo e CTI (SIMULADOR PROTEUS NO FUNCIONA CTI)
    1b7e:	4b0a      	ldr	r3, [pc, #40]	; (1ba8 <uart3_ClearBufferRx+0x2c>)
    1b80:	681a      	ldr	r2, [r3, #0]
    1b82:	f022 0201 	bic.w	r2, r2, #1
    1b86:	601a      	str	r2, [r3, #0]
	nop();
    1b88:	bf00      	nop
	u3_overflow_rx = 0; 				// Limpa overflow do buffer de recepo
    1b8a:	4b08      	ldr	r3, [pc, #32]	; (1bac <uart3_ClearBufferRx+0x30>)
    1b8c:	2200      	movs	r2, #0
    1b8e:	801a      	strh	r2, [r3, #0]
	U3FCR = U3FCR_RX_FIFO_RESET;		// Limpa RX FIFO
    1b90:	4b07      	ldr	r3, [pc, #28]	; (1bb0 <uart3_ClearBufferRx+0x34>)
    1b92:	2202      	movs	r2, #2
    1b94:	601a      	str	r2, [r3, #0]
	buffer_Clear(&u3_buf_rx);			// Limpa o buffer de recepo
    1b96:	4807      	ldr	r0, [pc, #28]	; (1bb4 <uart3_ClearBufferRx+0x38>)
    1b98:	f001 f8f3 	bl	2d82 <buffer_Clear>
	U3IER |= U3IER_ERBFI;				// Habilita interrupo de dados prontos na recepo e CTI (SIMULADOR PROTEUS NO FUNCIONA CTI)
    1b9c:	4b02      	ldr	r3, [pc, #8]	; (1ba8 <uart3_ClearBufferRx+0x2c>)
    1b9e:	681a      	ldr	r2, [r3, #0]
    1ba0:	f042 0201 	orr.w	r2, r2, #1
    1ba4:	601a      	str	r2, [r3, #0]
    1ba6:	bd08      	pop	{r3, pc}
    1ba8:	4009c004 	.word	0x4009c004
    1bac:	1000064e 	.word	0x1000064e
    1bb0:	4009c008 	.word	0x4009c008
    1bb4:	10000650 	.word	0x10000650

Disassembly of section .text.uart3_BufferQtdRx:

00001bb8 <uart3_BufferQtdRx>:
// Descrio: 	Retorna com a quantidade de bytes recebidos no buffer de recepo
// Parametros:	Nenhum
// Retorna:		Retorna com a quantidade de bytes recebidos no buffer de recepo
// -----------------------------------------------------------------------------------------------------------------
int uart3_BufferQtdRx(void) {
	return u3_buf_rx.datalength;
    1bb8:	4b01      	ldr	r3, [pc, #4]	; (1bc0 <uart3_BufferQtdRx+0x8>)
    1bba:	88d8      	ldrh	r0, [r3, #6]
}
    1bbc:	b280      	uxth	r0, r0
    1bbe:	4770      	bx	lr
    1bc0:	10000650 	.word	0x10000650

Disassembly of section .text.uart3_PutChar:

00001bc4 <uart3_PutChar>:
// Retorna:		Retorna pdPASS ou o cdigo de erro
// -------------------------------------------------------------------------------------------------------------------
int uart3_PutChar(n16 ch) {
	int sts;

	if ( u3_buf_tx.size == 0 )												// Checa se o buffer de transmisso ainda no foi criado
    1bc4:	4b15      	ldr	r3, [pc, #84]	; (1c1c <uart3_PutChar+0x58>)
// -------------------------------------------------------------------------------------------------------------------
// Descrio:	Coloca um caractere na fila de transmisso
// Parametros: 	Caractere a ser transmitindo
// Retorna:		Retorna pdPASS ou o cdigo de erro
// -------------------------------------------------------------------------------------------------------------------
int uart3_PutChar(n16 ch) {
    1bc6:	b570      	push	{r4, r5, r6, lr}
	int sts;

	if ( u3_buf_tx.size == 0 )												// Checa se o buffer de transmisso ainda no foi criado
    1bc8:	889b      	ldrh	r3, [r3, #4]
    1bca:	b29b      	uxth	r3, r3
    1bcc:	b303      	cbz	r3, 1c10 <uart3_PutChar+0x4c>
	//  obrigatrio incluirmos o char no buffer, mesmo que vamos retir-lo logo em seguida caso u3_tx_running for FALSE
	//	Se no for dessa forma o e usar U3THR = ch haver erro de sincronismo entre os dados chegas e dados enviados.
	// Isto porque o manipulador de interrupo (uart3_ISR) pode atender a mais de uma interrupo simulataneas

	do {
		U3IER &= ~U3IER_ETBEI;                 								// Desativa a interrupo de transmisso
    1bce:	4c14      	ldr	r4, [pc, #80]	; (1c20 <uart3_PutChar+0x5c>)
		nop();
		sts = buffer_AddToEnd(&u3_buf_tx, ch);
    1bd0:	b2c6      	uxtb	r6, r0
	//  obrigatrio incluirmos o char no buffer, mesmo que vamos retir-lo logo em seguida caso u3_tx_running for FALSE
	//	Se no for dessa forma o e usar U3THR = ch haver erro de sincronismo entre os dados chegas e dados enviados.
	// Isto porque o manipulador de interrupo (uart3_ISR) pode atender a mais de uma interrupo simulataneas

	do {
		U3IER &= ~U3IER_ETBEI;                 								// Desativa a interrupo de transmisso
    1bd2:	6823      	ldr	r3, [r4, #0]
    1bd4:	f023 0302 	bic.w	r3, r3, #2
    1bd8:	6023      	str	r3, [r4, #0]
		nop();
    1bda:	bf00      	nop
		sts = buffer_AddToEnd(&u3_buf_tx, ch);
    1bdc:	480f      	ldr	r0, [pc, #60]	; (1c1c <uart3_PutChar+0x58>)
    1bde:	4631      	mov	r1, r6
    1be0:	f001 f8ab 	bl	2d3a <buffer_AddToEnd>
		U3IER |= U3IER_ETBEI;                  								// Habilita a interrupo de transmisso
    1be4:	6823      	ldr	r3, [r4, #0]

		CRITICAL_WAIT;														// Caso exista algum OS, pode trocar de contexto
	} while (sts == errBUFFER_FULL);
    1be6:	300a      	adds	r0, #10

	do {
		U3IER &= ~U3IER_ETBEI;                 								// Desativa a interrupo de transmisso
		nop();
		sts = buffer_AddToEnd(&u3_buf_tx, ch);
		U3IER |= U3IER_ETBEI;                  								// Habilita a interrupo de transmisso
    1be8:	f043 0302 	orr.w	r3, r3, #2
    1bec:	4d0c      	ldr	r5, [pc, #48]	; (1c20 <uart3_PutChar+0x5c>)
    1bee:	6023      	str	r3, [r4, #0]

		CRITICAL_WAIT;														// Caso exista algum OS, pode trocar de contexto
	} while (sts == errBUFFER_FULL);
    1bf0:	d0ef      	beq.n	1bd2 <uart3_PutChar+0xe>

	if (!u3_tx_running) {													// Checa se existe dado sendo transmitido
    1bf2:	4c0c      	ldr	r4, [pc, #48]	; (1c24 <uart3_PutChar+0x60>)
    1bf4:	7823      	ldrb	r3, [r4, #0]
    1bf6:	b973      	cbnz	r3, 1c16 <uart3_PutChar+0x52>
  		U3THR = buffer_GetFromFront(&u3_buf_tx);							// Atribui o dado do buffer ao registrador de transmisso
    1bf8:	4808      	ldr	r0, [pc, #32]	; (1c1c <uart3_PutChar+0x58>)
    1bfa:	f001 f87c 	bl	2cf6 <buffer_GetFromFront>
    1bfe:	4b0a      	ldr	r3, [pc, #40]	; (1c28 <uart3_PutChar+0x64>)
    1c00:	6018      	str	r0, [r3, #0]
  		u3_tx_running = pdTRUE;												// Sinaliza que existe dado sendo trasnmitido
    1c02:	2001      	movs	r0, #1
    1c04:	7020      	strb	r0, [r4, #0]
  		U3IER |= U3IER_ETBEI;                  								// Habilita a interrupo de transmisso
    1c06:	682b      	ldr	r3, [r5, #0]
    1c08:	f043 0302 	orr.w	r3, r3, #2
    1c0c:	602b      	str	r3, [r5, #0]
    1c0e:	bd70      	pop	{r4, r5, r6, pc}
// -------------------------------------------------------------------------------------------------------------------
int uart3_PutChar(n16 ch) {
	int sts;

	if ( u3_buf_tx.size == 0 )												// Checa se o buffer de transmisso ainda no foi criado
   		return errBUFFER_NO_EXIST;                          				// Retorna indicando erro
    1c10:	f06f 000b 	mvn.w	r0, #11
    1c14:	bd70      	pop	{r4, r5, r6, pc}
  		U3THR = buffer_GetFromFront(&u3_buf_tx);							// Atribui o dado do buffer ao registrador de transmisso
  		u3_tx_running = pdTRUE;												// Sinaliza que existe dado sendo trasnmitido
  		U3IER |= U3IER_ETBEI;                  								// Habilita a interrupo de transmisso
   	}

  	return pdPASS;
    1c16:	2001      	movs	r0, #1
}
    1c18:	bd70      	pop	{r4, r5, r6, pc}
    1c1a:	bf00      	nop
    1c1c:	100003e8 	.word	0x100003e8
    1c20:	4009c004 	.word	0x4009c004
    1c24:	100003f4 	.word	0x100003f4
    1c28:	4009c000 	.word	0x4009c000

Disassembly of section .text.uart3_SpaceTx:

00001c2c <uart3_SpaceTx>:
// Retorna:		O tamanho em bytes do espao disponivel para transmisso
// -------------------------------------------------------------------------------------------------------------------
u16 uart3_SpaceTx(void) {
	u16 qtd;
	
	U3IER &= ~U3IER_ETBEI;                 								// Desativa a interrupo de transmisso
    1c2c:	4b08      	ldr	r3, [pc, #32]	; (1c50 <uart3_SpaceTx+0x24>)
    1c2e:	681a      	ldr	r2, [r3, #0]
    1c30:	f022 0202 	bic.w	r2, r2, #2
    1c34:	601a      	str	r2, [r3, #0]
	nop();
    1c36:	bf00      	nop
	qtd = (u16)(u3_buf_tx.size - u3_buf_tx.datalength);					// Retorna com o espao disponivel
    1c38:	4b06      	ldr	r3, [pc, #24]	; (1c54 <uart3_SpaceTx+0x28>)
    1c3a:	8898      	ldrh	r0, [r3, #4]
    1c3c:	88da      	ldrh	r2, [r3, #6]
	U3IER |= U3IER_ETBEI;                  								// Habilita a interrupo de transmisso
    1c3e:	4b04      	ldr	r3, [pc, #16]	; (1c50 <uart3_SpaceTx+0x24>)
u16 uart3_SpaceTx(void) {
	u16 qtd;
	
	U3IER &= ~U3IER_ETBEI;                 								// Desativa a interrupo de transmisso
	nop();
	qtd = (u16)(u3_buf_tx.size - u3_buf_tx.datalength);					// Retorna com o espao disponivel
    1c40:	1a80      	subs	r0, r0, r2
	U3IER |= U3IER_ETBEI;                  								// Habilita a interrupo de transmisso
    1c42:	6819      	ldr	r1, [r3, #0]
	return qtd;
}
    1c44:	b280      	uxth	r0, r0
	u16 qtd;
	
	U3IER &= ~U3IER_ETBEI;                 								// Desativa a interrupo de transmisso
	nop();
	qtd = (u16)(u3_buf_tx.size - u3_buf_tx.datalength);					// Retorna com o espao disponivel
	U3IER |= U3IER_ETBEI;                  								// Habilita a interrupo de transmisso
    1c46:	f041 0102 	orr.w	r1, r1, #2
    1c4a:	6019      	str	r1, [r3, #0]
	return qtd;
}
    1c4c:	4770      	bx	lr
    1c4e:	bf00      	nop
    1c50:	4009c004 	.word	0x4009c004
    1c54:	100003e8 	.word	0x100003e8

Disassembly of section .text.uart3_EmptyTx:

00001c58 <uart3_EmptyTx>:
// Parametros: 	Nenhum
// Retorna:		pdFALSE = Se o registradores U0THR ou U0TSR no esto vazios
//				pdTRUE = Se o registradores U0THR ou U0TSR esto vazios
// -------------------------------------------------------------------------------------------------------------------
int uart3_EmptyTx(void) {
  	if ((U3LSR & (U3LSR_THRE | U3LSR_TEMT)) == (U3LSR_THRE | U3LSR_TEMT))
    1c58:	4b04      	ldr	r3, [pc, #16]	; (1c6c <uart3_EmptyTx+0x14>)
    1c5a:	6818      	ldr	r0, [r3, #0]
    1c5c:	f000 0060 	and.w	r0, r0, #96	; 0x60
  			return pdTRUE;
  	else	return pdFALSE;
}
    1c60:	f1b0 0260 	subs.w	r2, r0, #96	; 0x60
    1c64:	4250      	negs	r0, r2
    1c66:	4150      	adcs	r0, r2
    1c68:	4770      	bx	lr
    1c6a:	bf00      	nop
    1c6c:	4009c014 	.word	0x4009c014

Disassembly of section .text.uart3_WriteTx:

00001c70 <uart3_WriteTx>:
// Descrio:	Adiociona N caracteres no buffer de transmisso
// Parametros: 	Ponteiro do buffer 
//				Quantidade de caracteres as serem transmitidos
// Retorna:		pdPASS = Transmitido com sucesso ou o cdigo do erro
// -------------------------------------------------------------------------------------------------------------------
int uart3_WriteTx(u8 *buffer, u16 count) {
    1c70:	b538      	push	{r3, r4, r5, lr}
    1c72:	460c      	mov	r4, r1
    1c74:	4605      	mov	r5, r0
	if (count > uart3_SpaceTx())									// Checa se exste espao suficiente no buffer de TX de espao insuficiente
    1c76:	f7ff ffd9 	bl	1c2c <uart3_SpaceTx>
    1c7a:	4284      	cmp	r4, r0
    1c7c:	d904      	bls.n	1c88 <uart3_WriteTx+0x18>
   		return errBUFFER_FULL;										// Retorna cheio
    1c7e:	f06f 0009 	mvn.w	r0, #9
    1c82:	bd38      	pop	{r3, r4, r5, pc}
  	
  	while (count && (uart3_PutChar(*buffer++) >= 0))				// Faa enquanto tem dados a serem transmitidos
    	count--;
    1c84:	3c01      	subs	r4, #1
    1c86:	b2a4      	uxth	r4, r4
// -------------------------------------------------------------------------------------------------------------------
int uart3_WriteTx(u8 *buffer, u16 count) {
	if (count > uart3_SpaceTx())									// Checa se exste espao suficiente no buffer de TX de espao insuficiente
   		return errBUFFER_FULL;										// Retorna cheio
  	
  	while (count && (uart3_PutChar(*buffer++) >= 0))				// Faa enquanto tem dados a serem transmitidos
    1c88:	b134      	cbz	r4, 1c98 <uart3_WriteTx+0x28>
    1c8a:	f815 0b01 	ldrb.w	r0, [r5], #1
    1c8e:	f7ff ff99 	bl	1bc4 <uart3_PutChar>
    1c92:	2800      	cmp	r0, #0
    1c94:	daf6      	bge.n	1c84 <uart3_WriteTx+0x14>
    1c96:	e7f2      	b.n	1c7e <uart3_WriteTx+0xe>
    	count--;

  	return (count ? errBUFFER_FULL : pdPASS);						// Se count = 0 retorna 0 (Sucesso) seno retorna -2 (erro)
    1c98:	2001      	movs	r0, #1
}
    1c9a:	bd38      	pop	{r3, r4, r5, pc}

Disassembly of section .text.uart3_ISR:

00001c9c <uart3_ISR>:
//###################################################################################################################
// UART SERVIO DE INTERRUPES
// 		Descrio: 	Esta funo implementa o ISR da UART3
//###################################################################################################################
//###################################################################################################################
void uart3_ISR (void) {
    1c9c:	b5f8      	push	{r3, r4, r5, r6, r7, lr}
	ISR_ENTRY;																// Procedimento para entrada da interrupo

  	u8 int_flags;

  	while ( !((int_flags = U3IIR) & U3IIR_NO_INT) ) {							// Faa para todos os pedidos de interrupo pendentes emitidos pela UART
    1c9e:	4e22      	ldr	r6, [pc, #136]	; (1d28 <uart3_ISR+0x8c>)
        	// no alcanar o nvel do trigger os dados da FIFO sero adicionados
        	// ao buffer de recepo pela interrupo de timerout da UART (U3IIR_CTI_INT)
      	case U3IIR_CTI_INT:                									// Character Timeout Indicator. Dados na FIFO RX que no foram lidos e est abaixo do nvel de gatilho de int
      	case U3IIR_RDA_INT:                									// Caso que exista bytes disponivel recepo
     		do {
    			if (buffer_AddToEnd(&u3_buf_rx, U3RBR) == errBUFFER_FULL)
    1ca0:	4c22      	ldr	r4, [pc, #136]	; (1d2c <uart3_ISR+0x90>)
void uart3_ISR (void) {
	ISR_ENTRY;																// Procedimento para entrada da interrupo

  	u8 int_flags;

  	while ( !((int_flags = U3IIR) & U3IIR_NO_INT) ) {							// Faa para todos os pedidos de interrupo pendentes emitidos pela UART
    1ca2:	6832      	ldr	r2, [r6, #0]
    1ca4:	07d3      	lsls	r3, r2, #31
    1ca6:	d43a      	bmi.n	1d1e <uart3_ISR+0x82>
  		switch (int_flags & U3IIR_ID_MASK) {									// Identifica a fonte de interrupo
    1ca8:	f002 020e 	and.w	r2, r2, #14
    1cac:	3a02      	subs	r2, #2
    1cae:	4b20      	ldr	r3, [pc, #128]	; (1d30 <uart3_ISR+0x94>)
    1cb0:	2a0a      	cmp	r2, #10
    1cb2:	d831      	bhi.n	1d18 <uart3_ISR+0x7c>
    1cb4:	e8df f002 	tbb	[pc, r2]
    1cb8:	3008302b 	.word	0x3008302b
    1cbc:	30303006 	.word	0x30303006
    1cc0:	3030      	.short	0x3030
    1cc2:	08          	.byte	0x08
    1cc3:	00          	.byte	0x00
  		case U3IIR_RLS_INT:                									// Caso recebeu uma INT de erro na linha de recepo (receive line status)
  			U3LSR;                         									// Limpa registrador de status de linha
    1cc4:	681b      	ldr	r3, [r3, #0]
        	break;
    1cc6:	e7ec      	b.n	1ca2 <uart3_ISR+0x6>
        	// ao buffer de recepo pela interrupo de timerout da UART (U3IIR_CTI_INT)
      	case U3IIR_CTI_INT:                									// Character Timeout Indicator. Dados na FIFO RX que no foram lidos e est abaixo do nvel de gatilho de int
      	case U3IIR_RDA_INT:                									// Caso que exista bytes disponivel recepo
     		do {
    			if (buffer_AddToEnd(&u3_buf_rx, U3RBR) == errBUFFER_FULL)
					u3_overflow_rx++;
    1cc8:	4d1a      	ldr	r5, [pc, #104]	; (1d34 <uart3_ISR+0x98>)
      		} while(U3LSR & U3LSR_RDR);										// Faa enquanto existe dados validos na FIFO de recepo
    1cca:	4f19      	ldr	r7, [pc, #100]	; (1d30 <uart3_ISR+0x94>)
        	// no alcanar o nvel do trigger os dados da FIFO sero adicionados
        	// ao buffer de recepo pela interrupo de timerout da UART (U3IIR_CTI_INT)
      	case U3IIR_CTI_INT:                									// Character Timeout Indicator. Dados na FIFO RX que no foram lidos e est abaixo do nvel de gatilho de int
      	case U3IIR_RDA_INT:                									// Caso que exista bytes disponivel recepo
     		do {
    			if (buffer_AddToEnd(&u3_buf_rx, U3RBR) == errBUFFER_FULL)
    1ccc:	6821      	ldr	r1, [r4, #0]
    1cce:	481a      	ldr	r0, [pc, #104]	; (1d38 <uart3_ISR+0x9c>)
    1cd0:	b2c9      	uxtb	r1, r1
    1cd2:	f001 f832 	bl	2d3a <buffer_AddToEnd>
    1cd6:	300a      	adds	r0, #10
    1cd8:	d103      	bne.n	1ce2 <uart3_ISR+0x46>
					u3_overflow_rx++;
    1cda:	882b      	ldrh	r3, [r5, #0]
    1cdc:	3301      	adds	r3, #1
    1cde:	b29b      	uxth	r3, r3
    1ce0:	802b      	strh	r3, [r5, #0]
      		} while(U3LSR & U3LSR_RDR);										// Faa enquanto existe dados validos na FIFO de recepo
    1ce2:	683b      	ldr	r3, [r7, #0]
    1ce4:	07d8      	lsls	r0, r3, #31
    1ce6:	d4f1      	bmi.n	1ccc <uart3_ISR+0x30>
    1ce8:	e7db      	b.n	1ca2 <uart3_ISR+0x6>
     	// RETIRA OS DADOS DO BUFFER TX PARA A FIFO DE TRANSMISSO
     		// Essa interrupo  gerada quando a FIFO de transmisso de 16 bytes est vazia
			// O registrador UxTHR  o topo da FIFO de 16 bytes, ou seja,  o endereo da ltima posio a ser inserida da FIFO
	  	case U3IIR_THRE_INT:              									// Interrupo da FIFO de 16 bytes quando est vazia
	  		while (U3LSR & U3LSR_THRE) {									// Faa enquanto h espao na FIFO
	  			if (buffer_IsEmpty(&u3_buf_tx) ) {						 	// Checa se o buffer de transmisso j est vazio
    1cea:	4814      	ldr	r0, [pc, #80]	; (1d3c <uart3_ISR+0xa0>)
    1cec:	f001 f842 	bl	2d74 <buffer_IsEmpty>
    1cf0:	b140      	cbz	r0, 1d04 <uart3_ISR+0x68>
	    			u3_tx_running = pdFALSE;     							// Sinaliza que no existe dados para trasnmissao
    1cf2:	4b13      	ldr	r3, [pc, #76]	; (1d40 <uart3_ISR+0xa4>)
    1cf4:	2200      	movs	r2, #0
    1cf6:	701a      	strb	r2, [r3, #0]
	    			U3IER &= ~U3IER_ETBEI;                					// Desativa a interrupo de transmisso
    1cf8:	4b12      	ldr	r3, [pc, #72]	; (1d44 <uart3_ISR+0xa8>)
    1cfa:	681a      	ldr	r2, [r3, #0]
    1cfc:	f022 0202 	bic.w	r2, r2, #2
    1d00:	601a      	str	r2, [r3, #0]
	      			break;
    1d02:	e7ce      	b.n	1ca2 <uart3_ISR+0x6>
	    		} else {
					#if (UART3_USE_HANDSHAKING == pdON) // AINDA NO TESTADO
	    			if (uart3_CTS()) // Checa se o receptor esteja pronto para eviar dados
					#endif
	    				U3THR = buffer_GetFromFront(&u3_buf_tx);			// Atribui o dado do buffer ao registrador de transmisso
    1d04:	480d      	ldr	r0, [pc, #52]	; (1d3c <uart3_ISR+0xa0>)
    1d06:	f000 fff6 	bl	2cf6 <buffer_GetFromFront>
    1d0a:	6020      	str	r0, [r4, #0]
    1d0c:	e000      	b.n	1d10 <uart3_ISR+0x74>

     	// RETIRA OS DADOS DO BUFFER TX PARA A FIFO DE TRANSMISSO
     		// Essa interrupo  gerada quando a FIFO de transmisso de 16 bytes est vazia
			// O registrador UxTHR  o topo da FIFO de 16 bytes, ou seja,  o endereo da ltima posio a ser inserida da FIFO
	  	case U3IIR_THRE_INT:              									// Interrupo da FIFO de 16 bytes quando est vazia
	  		while (U3LSR & U3LSR_THRE) {									// Faa enquanto h espao na FIFO
    1d0e:	4d08      	ldr	r5, [pc, #32]	; (1d30 <uart3_ISR+0x94>)
    1d10:	682b      	ldr	r3, [r5, #0]
    1d12:	0699      	lsls	r1, r3, #26
    1d14:	d4e9      	bmi.n	1cea <uart3_ISR+0x4e>
    1d16:	e7c4      	b.n	1ca2 <uart3_ISR+0x6>
	    	}

	    	break;

      	default:															// Interrupo desconhecida
      		U3LSR;															// Limpa registrador de status de linha
    1d18:	681b      	ldr	r3, [r3, #0]
        	U3RBR;															// Limpa o registrador de recepao de dados
    1d1a:	6823      	ldr	r3, [r4, #0]
        	break;
    1d1c:	e7c1      	b.n	1ca2 <uart3_ISR+0x6>
  	// Limpa interrupo
  	#if defined(arm7tdmi)
  	VICSoftIntClr = (1<<VIC_UART3);
	#endif
	#if defined (cortexm3)
  	nvic_clearPendingIRQ(VIC_UART3);
    1d1e:	2008      	movs	r0, #8
	#endif

    ISR_EXIT;																// Procedimento para saida da interrupo
}
    1d20:	e8bd 40f8 	ldmia.w	sp!, {r3, r4, r5, r6, r7, lr}
  	// Limpa interrupo
  	#if defined(arm7tdmi)
  	VICSoftIntClr = (1<<VIC_UART3);
	#endif
	#if defined (cortexm3)
  	nvic_clearPendingIRQ(VIC_UART3);
    1d24:	f7ff bc92 	b.w	164c <nvic_clearPendingIRQ>
    1d28:	4009c008 	.word	0x4009c008
    1d2c:	4009c000 	.word	0x4009c000
    1d30:	4009c014 	.word	0x4009c014
    1d34:	1000064e 	.word	0x1000064e
    1d38:	10000650 	.word	0x10000650
    1d3c:	100003e8 	.word	0x100003e8
    1d40:	100003f4 	.word	0x100003f4
    1d44:	4009c004 	.word	0x4009c004

Disassembly of section .text.uart0_Init:

00001d48 <uart0_Init>:
// Descrio: 	Incializa e configura o modo de trabalho da UART
// Parametros:	baudrate: 
//					1200, 2400, ... , 57600, 115200 ...
// Retorna:		retorna pdPASS se iniciliazou sem problemas ou retorna cdigo do erro
// -------------------------------------------------------------------------------------------------------------------
int uart0_Init(u32 baudrate) {
    1d48:	b5f8      	push	{r3, r4, r5, r6, r7, lr}
  	u32 f_div;
  	
  	PCONP |= PCUART0;											// Ligar a uart no controle de potencia. Tem que ser antes da configurao, pois aps ligar o perifricos, seus regs assumem valores padres
    1d4a:	4b23      	ldr	r3, [pc, #140]	; (1dd8 <uart0_Init+0x90>)
	U0_CTS_DIR &= ~U0_CTS; 				// Pino CTS como entrada
	U0_RTS_DIR |= U0_RTS; 				// Pino RTS como sada
	uart0_RTSon(); 						// Sinaliza que posso receber dados
  	#endif

  	U0IER = 0;   	                      						// Desabilita todas as fonte de interrupes da uart
    1d4c:	4c23      	ldr	r4, [pc, #140]	; (1ddc <uart0_Init+0x94>)
// Retorna:		retorna pdPASS se iniciliazou sem problemas ou retorna cdigo do erro
// -------------------------------------------------------------------------------------------------------------------
int uart0_Init(u32 baudrate) {
  	u32 f_div;
  	
  	PCONP |= PCUART0;											// Ligar a uart no controle de potencia. Tem que ser antes da configurao, pois aps ligar o perifricos, seus regs assumem valores padres
    1d4e:	681a      	ldr	r2, [r3, #0]
	U0_CTS_DIR &= ~U0_CTS; 				// Pino CTS como entrada
	U0_RTS_DIR |= U0_RTS; 				// Pino RTS como sada
	uart0_RTSon(); 						// Sinaliza que posso receber dados
  	#endif

  	U0IER = 0;   	                      						// Desabilita todas as fonte de interrupes da uart
    1d50:	2500      	movs	r5, #0
// Retorna:		retorna pdPASS se iniciliazou sem problemas ou retorna cdigo do erro
// -------------------------------------------------------------------------------------------------------------------
int uart0_Init(u32 baudrate) {
  	u32 f_div;
  	
  	PCONP |= PCUART0;											// Ligar a uart no controle de potencia. Tem que ser antes da configurao, pois aps ligar o perifricos, seus regs assumem valores padres
    1d52:	f042 0208 	orr.w	r2, r2, #8
    1d56:	601a      	str	r2, [r3, #0]
	#if defined(arm7tdmi)
  	U0_PINSEL = (U0_PINSEL & ~U0_PINMASK) | U0_PINS;			// Configura os pinos do uC para a funo UART. Pinos TX=P0_2 e RX=P0_3
	#endif //arm7tdmi

	#if defined(cortexm3)
  	uart0_ConfigPort();
    1d58:	4b21      	ldr	r3, [pc, #132]	; (1de0 <uart0_Init+0x98>)

  	U0IER = 0;   	                      						// Desabilita todas as fonte de interrupes da uart
  	U0IIR;                                						// Limpa os identificadores de pendencia interrupes da uart
	U0FCR = (U0FCR_TX_FIFO_RESET | U0FCR_RX_FIFO_RESET);		// Limpa TX e RX FIFOS
  	
  	U0LCR = U0LCR_DLAB_ENABLE;             						// Seleciona os latches de devises para ajusta do baudrate
    1d5a:	2180      	movs	r1, #128	; 0x80
	#if defined(arm7tdmi)
  	U0_PINSEL = (U0_PINSEL & ~U0_PINMASK) | U0_PINS;			// Configura os pinos do uC para a funo UART. Pinos TX=P0_2 e RX=P0_3
	#endif //arm7tdmi

	#if defined(cortexm3)
  	uart0_ConfigPort();
    1d5c:	681a      	ldr	r2, [r3, #0]
  	
  	U0FCR = UART0_FIFOMODE;										// Configura o modo de trabalho da FIFO
  	
  	U0RBR;                                						// Limpa o registrador de recepao de dados
  	U0LSR;                                						// Limpa o registrador de estado de linha
	U0FCR = U0FCR_RX_FIFO_RESET;								// Limpa a FIFO de recepo
    1d5e:	2702      	movs	r7, #2
	#if defined(arm7tdmi)
  	U0_PINSEL = (U0_PINSEL & ~U0_PINMASK) | U0_PINS;			// Configura os pinos do uC para a funo UART. Pinos TX=P0_2 e RX=P0_3
	#endif //arm7tdmi

	#if defined(cortexm3)
  	uart0_ConfigPort();
    1d60:	f042 0250 	orr.w	r2, r2, #80	; 0x50
    1d64:	601a      	str	r2, [r3, #0]
	U0_RTS_DIR |= U0_RTS; 				// Pino RTS como sada
	uart0_RTSon(); 						// Sinaliza que posso receber dados
  	#endif

  	U0IER = 0;   	                      						// Desabilita todas as fonte de interrupes da uart
  	U0IIR;                                						// Limpa os identificadores de pendencia interrupes da uart
    1d66:	4b1f      	ldr	r3, [pc, #124]	; (1de4 <uart0_Init+0x9c>)
	U0_CTS_DIR &= ~U0_CTS; 				// Pino CTS como entrada
	U0_RTS_DIR |= U0_RTS; 				// Pino RTS como sada
	uart0_RTSon(); 						// Sinaliza que posso receber dados
  	#endif

  	U0IER = 0;   	                      						// Desabilita todas as fonte de interrupes da uart
    1d68:	6025      	str	r5, [r4, #0]
  	U0IIR;                                						// Limpa os identificadores de pendencia interrupes da uart
    1d6a:	681a      	ldr	r2, [r3, #0]
	U0FCR = (U0FCR_TX_FIFO_RESET | U0FCR_RX_FIFO_RESET);		// Limpa TX e RX FIFOS
    1d6c:	2206      	movs	r2, #6
    1d6e:	601a      	str	r2, [r3, #0]
  	
  	U0LCR = U0LCR_DLAB_ENABLE;             						// Seleciona os latches de devises para ajusta do baudrate
    1d70:	4a1d      	ldr	r2, [pc, #116]	; (1de8 <uart0_Init+0xa0>)
    1d72:	6011      	str	r1, [r2, #0]
  	f_div = ( PCLK / 16 ) / baudrate ;							// Calcular divisor para o baudrate
    1d74:	491d      	ldr	r1, [pc, #116]	; (1dec <uart0_Init+0xa4>)
    1d76:	fbb1 f0f0 	udiv	r0, r1, r0
  	U0DLL = f_div%256;              							// Ajusta o baudrate byte baixo
    1d7a:	491d      	ldr	r1, [pc, #116]	; (1df0 <uart0_Init+0xa8>)
    1d7c:	b2c6      	uxtb	r6, r0
  	U0DLM = f_div/256;       									// Ajusta o baudrate byte alto
    1d7e:	0a00      	lsrs	r0, r0, #8
  	U0IIR;                                						// Limpa os identificadores de pendencia interrupes da uart
	U0FCR = (U0FCR_TX_FIFO_RESET | U0FCR_RX_FIFO_RESET);		// Limpa TX e RX FIFOS
  	
  	U0LCR = U0LCR_DLAB_ENABLE;             						// Seleciona os latches de devises para ajusta do baudrate
  	f_div = ( PCLK / 16 ) / baudrate ;							// Calcular divisor para o baudrate
  	U0DLL = f_div%256;              							// Ajusta o baudrate byte baixo
    1d80:	600e      	str	r6, [r1, #0]
  	U0DLM = f_div/256;       									// Ajusta o baudrate byte alto
    1d82:	6020      	str	r0, [r4, #0]
  	U0LCR = (UART0_MODE & ~U0LCR_DLAB_ENABLE);					// Configura o modo de trabalho da uart e desativa o acesso aos registradores do baudrate
  	
  	U0FCR = UART0_FIFOMODE;										// Configura o modo de trabalho da FIFO
    1d84:	2601      	movs	r6, #1
  	
  	U0LCR = U0LCR_DLAB_ENABLE;             						// Seleciona os latches de devises para ajusta do baudrate
  	f_div = ( PCLK / 16 ) / baudrate ;							// Calcular divisor para o baudrate
  	U0DLL = f_div%256;              							// Ajusta o baudrate byte baixo
  	U0DLM = f_div/256;       									// Ajusta o baudrate byte alto
  	U0LCR = (UART0_MODE & ~U0LCR_DLAB_ENABLE);					// Configura o modo de trabalho da uart e desativa o acesso aos registradores do baudrate
    1d86:	2003      	movs	r0, #3
    1d88:	6010      	str	r0, [r2, #0]
  	
  	U0FCR = UART0_FIFOMODE;										// Configura o modo de trabalho da FIFO
    1d8a:	601e      	str	r6, [r3, #0]
  	
  	U0RBR;                                						// Limpa o registrador de recepao de dados
    1d8c:	680a      	ldr	r2, [r1, #0]
  	U0LSR;                                						// Limpa o registrador de estado de linha
    1d8e:	4a19      	ldr	r2, [pc, #100]	; (1df4 <uart0_Init+0xac>)
  	if (!irq_Install(VIC_UART0, uart0_ISR, UART0_PRIO_LEVEL))
		return errIRQ_INSTALL;
	#endif

	#if defined (cortexm3)
	nvic_enableIRQ(VIC_UART0);
    1d90:	2005      	movs	r0, #5
  	U0LCR = (UART0_MODE & ~U0LCR_DLAB_ENABLE);					// Configura o modo de trabalho da uart e desativa o acesso aos registradores do baudrate
  	
  	U0FCR = UART0_FIFOMODE;										// Configura o modo de trabalho da FIFO
  	
  	U0RBR;                                						// Limpa o registrador de recepao de dados
  	U0LSR;                                						// Limpa o registrador de estado de linha
    1d92:	6812      	ldr	r2, [r2, #0]
	U0FCR = U0FCR_RX_FIFO_RESET;								// Limpa a FIFO de recepo
  	U0FCR = U0FCR_TX_FIFO_RESET;          						// Limpa a FIFO de transmisso
    1d94:	2204      	movs	r2, #4
  	
  	U0FCR = UART0_FIFOMODE;										// Configura o modo de trabalho da FIFO
  	
  	U0RBR;                                						// Limpa o registrador de recepao de dados
  	U0LSR;                                						// Limpa o registrador de estado de linha
	U0FCR = U0FCR_RX_FIFO_RESET;								// Limpa a FIFO de recepo
    1d96:	601f      	str	r7, [r3, #0]
  	U0FCR = U0FCR_TX_FIFO_RESET;          						// Limpa a FIFO de transmisso
    1d98:	601a      	str	r2, [r3, #0]
  	if (!irq_Install(VIC_UART0, uart0_ISR, UART0_PRIO_LEVEL))
		return errIRQ_INSTALL;
	#endif

	#if defined (cortexm3)
	nvic_enableIRQ(VIC_UART0);
    1d9a:	f7ff fc49 	bl	1630 <nvic_enableIRQ>
	nvic_setPriority(VIC_UART0, UART0_PRIO_LEVEL);
    1d9e:	2005      	movs	r0, #5
    1da0:	4639      	mov	r1, r7
    1da2:	f7ff fc5f 	bl	1664 <nvic_setPriority>
	#if (USE_MALLOC == pdON)
	u0_data_rx = malloc(UART0_RX_BUFFER_SIZE*sizeof(u8));
	u0_data_tx = malloc(UART0_TX_BUFFER_SIZE*sizeof(u8));
	#endif

	buffer_Init(&u0_buf_rx, u0_data_rx, UART0_RX_BUFFER_SIZE);
    1da6:	4814      	ldr	r0, [pc, #80]	; (1df8 <uart0_Init+0xb0>)
    1da8:	4914      	ldr	r1, [pc, #80]	; (1dfc <uart0_Init+0xb4>)
    1daa:	f44f 7296 	mov.w	r2, #300	; 0x12c
    1dae:	f000 ff9c 	bl	2cea <buffer_Init>
	buffer_Init(&u0_buf_tx, u0_data_tx, UART0_TX_BUFFER_SIZE);
    1db2:	4813      	ldr	r0, [pc, #76]	; (1e00 <uart0_Init+0xb8>)
    1db4:	4913      	ldr	r1, [pc, #76]	; (1e04 <uart0_Init+0xbc>)
    1db6:	f44f 7296 	mov.w	r2, #300	; 0x12c
    1dba:	f000 ff96 	bl	2cea <buffer_Init>
		
	u0_overflow_rx = 0; 										// Limpa overflow do buffer de recepo
    1dbe:	4b12      	ldr	r3, [pc, #72]	; (1e08 <uart0_Init+0xc0>)
	
	U0IER |= U0IER_ERBFI;										// Habilita interrupo de dados prontos na recepo e CTI (SIMULADOR PROTEUS NO FUNCIONA CTI)
	U0IER &= ~U0IER_ETBEI;                						// Desabilita a interrupo de buffer vazio de transmisso

	return pdPASS;
}
    1dc0:	4630      	mov	r0, r6
	#endif

	buffer_Init(&u0_buf_rx, u0_data_rx, UART0_RX_BUFFER_SIZE);
	buffer_Init(&u0_buf_tx, u0_data_tx, UART0_TX_BUFFER_SIZE);
		
	u0_overflow_rx = 0; 										// Limpa overflow do buffer de recepo
    1dc2:	801d      	strh	r5, [r3, #0]
	u0_tx_running = pdFALSE;
    1dc4:	4b11      	ldr	r3, [pc, #68]	; (1e0c <uart0_Init+0xc4>)
    1dc6:	701d      	strb	r5, [r3, #0]
	
	U0IER |= U0IER_ERBFI;										// Habilita interrupo de dados prontos na recepo e CTI (SIMULADOR PROTEUS NO FUNCIONA CTI)
    1dc8:	6823      	ldr	r3, [r4, #0]
    1dca:	4333      	orrs	r3, r6
    1dcc:	6023      	str	r3, [r4, #0]
	U0IER &= ~U0IER_ETBEI;                						// Desabilita a interrupo de buffer vazio de transmisso
    1dce:	6823      	ldr	r3, [r4, #0]
    1dd0:	f023 0302 	bic.w	r3, r3, #2
    1dd4:	6023      	str	r3, [r4, #0]

	return pdPASS;
}
    1dd6:	bdf8      	pop	{r3, r4, r5, r6, r7, pc}
    1dd8:	400fc0c4 	.word	0x400fc0c4
    1ddc:	4000c004 	.word	0x4000c004
    1de0:	4002c000 	.word	0x4002c000
    1de4:	4000c008 	.word	0x4000c008
    1de8:	4000c00c 	.word	0x4000c00c
    1dec:	0017d784 	.word	0x0017d784
    1df0:	4000c000 	.word	0x4000c000
    1df4:	4000c014 	.word	0x4000c014
    1df8:	1000078c 	.word	0x1000078c
    1dfc:	100007a4 	.word	0x100007a4
    1e00:	10000798 	.word	0x10000798
    1e04:	1000065c 	.word	0x1000065c
    1e08:	1000078a 	.word	0x1000078a
    1e0c:	10000788 	.word	0x10000788

Disassembly of section .text.uart0_GetChar:

00001e10 <uart0_GetChar>:
// Retorna:		pdPASS indicando que existe caractere recebido ou o cdigo do erro
// -------------------------------------------------------------------------------------------------------------------
int uart0_GetChar(u8 *ch) {
	int ret;

	if ( u0_buf_rx.size == 0 )								// Checa se o buffer de recepo ainda no foi criado
    1e10:	4b0f      	ldr	r3, [pc, #60]	; (1e50 <uart0_GetChar+0x40>)
// -------------------------------------------------------------------------------------------------------------------
// Descrio:	Captura o prximo byte recebido na UART
// Parametros: 	Ponteiro para da variavel char para o retorno do byte recebido
// Retorna:		pdPASS indicando que existe caractere recebido ou o cdigo do erro
// -------------------------------------------------------------------------------------------------------------------
int uart0_GetChar(u8 *ch) {
    1e12:	b510      	push	{r4, lr}
	int ret;

	if ( u0_buf_rx.size == 0 )								// Checa se o buffer de recepo ainda no foi criado
    1e14:	889a      	ldrh	r2, [r3, #4]
// -------------------------------------------------------------------------------------------------------------------
// Descrio:	Captura o prximo byte recebido na UART
// Parametros: 	Ponteiro para da variavel char para o retorno do byte recebido
// Retorna:		pdPASS indicando que existe caractere recebido ou o cdigo do erro
// -------------------------------------------------------------------------------------------------------------------
int uart0_GetChar(u8 *ch) {
    1e16:	4604      	mov	r4, r0
	int ret;

	if ( u0_buf_rx.size == 0 )								// Checa se o buffer de recepo ainda no foi criado
    1e18:	b292      	uxth	r2, r2
    1e1a:	b19a      	cbz	r2, 1e44 <uart0_GetChar+0x34>
   		return errBUFFER_NO_EXIST;            				// Retorna indicando erro

	if ( u0_buf_rx.datalength ) {							// Checo de o buffer de recepo contm dados recebidos pela UART
    1e1c:	88db      	ldrh	r3, [r3, #6]
    1e1e:	b29b      	uxth	r3, r3
    1e20:	b19b      	cbz	r3, 1e4a <uart0_GetChar+0x3a>
		U0IER &= ~U0IER_ERBFI;								// Desabilita interrupo de dados prontos na recepo e CTI (SIMULADOR PROTEUS NO FUNCIONA CTI)
    1e22:	4b0c      	ldr	r3, [pc, #48]	; (1e54 <uart0_GetChar+0x44>)
    1e24:	681a      	ldr	r2, [r3, #0]
    1e26:	f022 0201 	bic.w	r2, r2, #1
    1e2a:	601a      	str	r2, [r3, #0]
		nop();
    1e2c:	bf00      	nop
		*ch = buffer_GetFromFront(&u0_buf_rx);				// Captura os dados do inicio do buffer
    1e2e:	4808      	ldr	r0, [pc, #32]	; (1e50 <uart0_GetChar+0x40>)
    1e30:	f000 ff61 	bl	2cf6 <buffer_GetFromFront>
		U0IER |= U0IER_ERBFI;								// Habilita interrupo de dados prontos na recepo e CTI (SIMULADOR PROTEUS NO FUNCIONA CTI)
    1e34:	4b07      	ldr	r3, [pc, #28]	; (1e54 <uart0_GetChar+0x44>)
   		return errBUFFER_NO_EXIST;            				// Retorna indicando erro

	if ( u0_buf_rx.datalength ) {							// Checo de o buffer de recepo contm dados recebidos pela UART
		U0IER &= ~U0IER_ERBFI;								// Desabilita interrupo de dados prontos na recepo e CTI (SIMULADOR PROTEUS NO FUNCIONA CTI)
		nop();
		*ch = buffer_GetFromFront(&u0_buf_rx);				// Captura os dados do inicio do buffer
    1e36:	7020      	strb	r0, [r4, #0]
		U0IER |= U0IER_ERBFI;								// Habilita interrupo de dados prontos na recepo e CTI (SIMULADOR PROTEUS NO FUNCIONA CTI)
    1e38:	681a      	ldr	r2, [r3, #0]
		ret = pdPASS;
    1e3a:	2001      	movs	r0, #1

	if ( u0_buf_rx.datalength ) {							// Checo de o buffer de recepo contm dados recebidos pela UART
		U0IER &= ~U0IER_ERBFI;								// Desabilita interrupo de dados prontos na recepo e CTI (SIMULADOR PROTEUS NO FUNCIONA CTI)
		nop();
		*ch = buffer_GetFromFront(&u0_buf_rx);				// Captura os dados do inicio do buffer
		U0IER |= U0IER_ERBFI;								// Habilita interrupo de dados prontos na recepo e CTI (SIMULADOR PROTEUS NO FUNCIONA CTI)
    1e3c:	f042 0201 	orr.w	r2, r2, #1
    1e40:	601a      	str	r2, [r3, #0]
    1e42:	bd10      	pop	{r4, pc}
// -------------------------------------------------------------------------------------------------------------------
int uart0_GetChar(u8 *ch) {
	int ret;

	if ( u0_buf_rx.size == 0 )								// Checa se o buffer de recepo ainda no foi criado
   		return errBUFFER_NO_EXIST;            				// Retorna indicando erro
    1e44:	f06f 000b 	mvn.w	r0, #11
    1e48:	bd10      	pop	{r4, pc}
		nop();
		*ch = buffer_GetFromFront(&u0_buf_rx);				// Captura os dados do inicio do buffer
		U0IER |= U0IER_ERBFI;								// Habilita interrupo de dados prontos na recepo e CTI (SIMULADOR PROTEUS NO FUNCIONA CTI)
		ret = pdPASS;
	} else
		ret = errBUFFER_EMPTY;
    1e4a:	f06f 000a 	mvn.w	r0, #10

	return ret;
}
    1e4e:	bd10      	pop	{r4, pc}
    1e50:	1000078c 	.word	0x1000078c
    1e54:	4000c004 	.word	0x4000c004

Disassembly of section .text.uart0_PutChar:

00001e58 <uart0_PutChar>:
// Retorna:		Retorna pdPASS ou o cdigo de erro
// -------------------------------------------------------------------------------------------------------------------
int uart0_PutChar(n16 ch) {
	int sts;

	if ( u0_buf_tx.size == 0 )												// Checa se o buffer de transmisso ainda no foi criado
    1e58:	4b15      	ldr	r3, [pc, #84]	; (1eb0 <uart0_PutChar+0x58>)
// -------------------------------------------------------------------------------------------------------------------
// Descrio:	Coloca um caractere na fila de transmisso
// Parametros: 	Caractere a ser transmitindo
// Retorna:		Retorna pdPASS ou o cdigo de erro
// -------------------------------------------------------------------------------------------------------------------
int uart0_PutChar(n16 ch) {
    1e5a:	b570      	push	{r4, r5, r6, lr}
	int sts;

	if ( u0_buf_tx.size == 0 )												// Checa se o buffer de transmisso ainda no foi criado
    1e5c:	889b      	ldrh	r3, [r3, #4]
    1e5e:	b29b      	uxth	r3, r3
    1e60:	b303      	cbz	r3, 1ea4 <uart0_PutChar+0x4c>
	//  obrigatrio incluirmos o char no buffer, mesmo que vamos retir-lo logo em seguida caso u3_tx_running for FALSE
	//	Se no for dessa forma o e usar U3THR = ch haver erro de sincronismo entre os dados chegas e dados enviados.
	// Isto porque o manipulador de interrupo (uart3_ISR) pode atender a mais de uma interrupo simulataneas

	do {
		U0IER &= ~U0IER_ETBEI;                 								// Desabilita a interrupo de transmisso
    1e62:	4c14      	ldr	r4, [pc, #80]	; (1eb4 <uart0_PutChar+0x5c>)
		nop();
		sts = buffer_AddToEnd(&u0_buf_tx, ch);
    1e64:	b2c6      	uxtb	r6, r0
	//  obrigatrio incluirmos o char no buffer, mesmo que vamos retir-lo logo em seguida caso u3_tx_running for FALSE
	//	Se no for dessa forma o e usar U3THR = ch haver erro de sincronismo entre os dados chegas e dados enviados.
	// Isto porque o manipulador de interrupo (uart3_ISR) pode atender a mais de uma interrupo simulataneas

	do {
		U0IER &= ~U0IER_ETBEI;                 								// Desabilita a interrupo de transmisso
    1e66:	6823      	ldr	r3, [r4, #0]
    1e68:	f023 0302 	bic.w	r3, r3, #2
    1e6c:	6023      	str	r3, [r4, #0]
		nop();
    1e6e:	bf00      	nop
		sts = buffer_AddToEnd(&u0_buf_tx, ch);
    1e70:	480f      	ldr	r0, [pc, #60]	; (1eb0 <uart0_PutChar+0x58>)
    1e72:	4631      	mov	r1, r6
    1e74:	f000 ff61 	bl	2d3a <buffer_AddToEnd>
		U0IER |= U0IER_ETBEI;                  								// Habilita a interrupo de transmisso
    1e78:	6823      	ldr	r3, [r4, #0]

		CRITICAL_WAIT;														// Caso exista algum OS, pode trocar de contexto
	} while (sts == errBUFFER_FULL);
    1e7a:	300a      	adds	r0, #10

	do {
		U0IER &= ~U0IER_ETBEI;                 								// Desabilita a interrupo de transmisso
		nop();
		sts = buffer_AddToEnd(&u0_buf_tx, ch);
		U0IER |= U0IER_ETBEI;                  								// Habilita a interrupo de transmisso
    1e7c:	f043 0302 	orr.w	r3, r3, #2
    1e80:	4d0c      	ldr	r5, [pc, #48]	; (1eb4 <uart0_PutChar+0x5c>)
    1e82:	6023      	str	r3, [r4, #0]

		CRITICAL_WAIT;														// Caso exista algum OS, pode trocar de contexto
	} while (sts == errBUFFER_FULL);
    1e84:	d0ef      	beq.n	1e66 <uart0_PutChar+0xe>

	if (!u0_tx_running) {													// Checa se existe dado sendo transmitido
    1e86:	4c0c      	ldr	r4, [pc, #48]	; (1eb8 <uart0_PutChar+0x60>)
    1e88:	7823      	ldrb	r3, [r4, #0]
    1e8a:	b973      	cbnz	r3, 1eaa <uart0_PutChar+0x52>
  		U0THR = buffer_GetFromFront(&u0_buf_tx);							// Atribui o dado do buffer ao registrador de transmisso
    1e8c:	4808      	ldr	r0, [pc, #32]	; (1eb0 <uart0_PutChar+0x58>)
    1e8e:	f000 ff32 	bl	2cf6 <buffer_GetFromFront>
    1e92:	4b0a      	ldr	r3, [pc, #40]	; (1ebc <uart0_PutChar+0x64>)
    1e94:	6018      	str	r0, [r3, #0]
  		u0_tx_running = pdTRUE;												// Sinaliza que existe dado sendo trasnmitido
    1e96:	2001      	movs	r0, #1
    1e98:	7020      	strb	r0, [r4, #0]
  		U0IER |= U0IER_ETBEI;                  								// Habilita a interrupo de transmisso
    1e9a:	682b      	ldr	r3, [r5, #0]
    1e9c:	f043 0302 	orr.w	r3, r3, #2
    1ea0:	602b      	str	r3, [r5, #0]
    1ea2:	bd70      	pop	{r4, r5, r6, pc}
// -------------------------------------------------------------------------------------------------------------------
int uart0_PutChar(n16 ch) {
	int sts;

	if ( u0_buf_tx.size == 0 )												// Checa se o buffer de transmisso ainda no foi criado
   		return errBUFFER_NO_EXIST;                          				// Retorna indicando erro
    1ea4:	f06f 000b 	mvn.w	r0, #11
    1ea8:	bd70      	pop	{r4, r5, r6, pc}
  		U0THR = buffer_GetFromFront(&u0_buf_tx);							// Atribui o dado do buffer ao registrador de transmisso
  		u0_tx_running = pdTRUE;												// Sinaliza que existe dado sendo trasnmitido
  		U0IER |= U0IER_ETBEI;                  								// Habilita a interrupo de transmisso
   	}

  	return pdPASS;
    1eaa:	2001      	movs	r0, #1
}
    1eac:	bd70      	pop	{r4, r5, r6, pc}
    1eae:	bf00      	nop
    1eb0:	10000798 	.word	0x10000798
    1eb4:	4000c004 	.word	0x4000c004
    1eb8:	10000788 	.word	0x10000788
    1ebc:	4000c000 	.word	0x4000c000

Disassembly of section .text.uart0_BasicPutChar:

00001ec0 <uart0_BasicPutChar>:
// Descrio:	Coloca um caractere na fila de transmisso. FUNO UTIL PARA DEBUG ONDE NO PRECISA INICIAR IRQ ou OS
// Parametros: 	Caractere a ser transmitindo
// Retorna:		Retorna pdPASS ou o cdigo de erro
// -------------------------------------------------------------------------------------------------------------------
int uart0_BasicPutChar(n16 ch) {
  	while (!(U0LSR & U0LSR_THRE))								// Espero at que o buffer TX fique vazio
    1ec0:	4a04      	ldr	r2, [pc, #16]	; (1ed4 <uart0_BasicPutChar+0x14>)
    1ec2:	6813      	ldr	r3, [r2, #0]
    1ec4:	069b      	lsls	r3, r3, #26
    1ec6:	d5fc      	bpl.n	1ec2 <uart0_BasicPutChar+0x2>
  		CRITICAL_WAIT;        									// Caso exista algum OS, pode trocar de contexto
  	U0THR = (u8)ch;												// Atualiza o registrador de TX uart com o dado
    1ec8:	4b03      	ldr	r3, [pc, #12]	; (1ed8 <uart0_BasicPutChar+0x18>)
    1eca:	b2c0      	uxtb	r0, r0
    1ecc:	6018      	str	r0, [r3, #0]
	return pdPASS;
}
    1ece:	2001      	movs	r0, #1
    1ed0:	4770      	bx	lr
    1ed2:	bf00      	nop
    1ed4:	4000c014 	.word	0x4000c014
    1ed8:	4000c000 	.word	0x4000c000

Disassembly of section .text.uart0_ISR:

00001edc <uart0_ISR>:
//###################################################################################################################
// UART SERVIO DE INTERRUPES
// 		Descrio: 	Esta funo implementa o ISR da UART0
//###################################################################################################################
//###################################################################################################################
void uart0_ISR (void) {
    1edc:	b5f8      	push	{r3, r4, r5, r6, r7, lr}
	ISR_ENTRY;																// Procedimento para entrada da interrupo

  	u8 int_flags;
 	 	
  	while ( !((int_flags = U0IIR) & U0IIR_NO_INT) ) {							// Faa para todos os pedidos de interrupo pendentes emitidos pela UART 	
    1ede:	4e22      	ldr	r6, [pc, #136]	; (1f68 <uart0_ISR+0x8c>)
        	// no alcanar o nvel do trigger os dados da FIFO sero adicionados
        	// ao buffer de recepo pela interrupo de timerout da UART (U3IIR_CTI_INT)
      	case U0IIR_CTI_INT:                									// Character Timeout Indicator. Dados na FIFO RX que no foram lidos e est abaixo do nvel de gatilho de int
      	case U0IIR_RDA_INT:                									// Caso que exista bytes disponivel recepo
      		do { 
      			if (buffer_AddToEnd(&u0_buf_rx, U0RBR) == errBUFFER_FULL)
    1ee0:	4c22      	ldr	r4, [pc, #136]	; (1f6c <uart0_ISR+0x90>)
void uart0_ISR (void) {
	ISR_ENTRY;																// Procedimento para entrada da interrupo

  	u8 int_flags;
 	 	
  	while ( !((int_flags = U0IIR) & U0IIR_NO_INT) ) {							// Faa para todos os pedidos de interrupo pendentes emitidos pela UART 	
    1ee2:	6832      	ldr	r2, [r6, #0]
    1ee4:	07d3      	lsls	r3, r2, #31
    1ee6:	d43a      	bmi.n	1f5e <uart0_ISR+0x82>
    	switch (int_flags & U0IIR_ID_MASK) {									// Identifica a fonte de interrupo
    1ee8:	f002 020e 	and.w	r2, r2, #14
    1eec:	3a02      	subs	r2, #2
    1eee:	4b20      	ldr	r3, [pc, #128]	; (1f70 <uart0_ISR+0x94>)
    1ef0:	2a0a      	cmp	r2, #10
    1ef2:	d831      	bhi.n	1f58 <uart0_ISR+0x7c>
    1ef4:	e8df f002 	tbb	[pc, r2]
    1ef8:	3008302b 	.word	0x3008302b
    1efc:	30303006 	.word	0x30303006
    1f00:	3030      	.short	0x3030
    1f02:	08          	.byte	0x08
    1f03:	00          	.byte	0x00
      	case U0IIR_RLS_INT:                									// Caso recebeu uma INT de erro na linha de recepo (receive line status)
        	U0LSR;                          								// Limpa registrador de status de linha
    1f04:	681b      	ldr	r3, [r3, #0]
        	break;
    1f06:	e7ec      	b.n	1ee2 <uart0_ISR+0x6>
        	// ao buffer de recepo pela interrupo de timerout da UART (U3IIR_CTI_INT)
      	case U0IIR_CTI_INT:                									// Character Timeout Indicator. Dados na FIFO RX que no foram lidos e est abaixo do nvel de gatilho de int
      	case U0IIR_RDA_INT:                									// Caso que exista bytes disponivel recepo
      		do { 
      			if (buffer_AddToEnd(&u0_buf_rx, U0RBR) == errBUFFER_FULL)
					u0_overflow_rx++;
    1f08:	4d1a      	ldr	r5, [pc, #104]	; (1f74 <uart0_ISR+0x98>)
      		} while(U0LSR & U0LSR_RDR);										// Faa enquanto existe dados validos na FIFO de recepo
    1f0a:	4f19      	ldr	r7, [pc, #100]	; (1f70 <uart0_ISR+0x94>)
        	// no alcanar o nvel do trigger os dados da FIFO sero adicionados
        	// ao buffer de recepo pela interrupo de timerout da UART (U3IIR_CTI_INT)
      	case U0IIR_CTI_INT:                									// Character Timeout Indicator. Dados na FIFO RX que no foram lidos e est abaixo do nvel de gatilho de int
      	case U0IIR_RDA_INT:                									// Caso que exista bytes disponivel recepo
      		do { 
      			if (buffer_AddToEnd(&u0_buf_rx, U0RBR) == errBUFFER_FULL)
    1f0c:	6821      	ldr	r1, [r4, #0]
    1f0e:	481a      	ldr	r0, [pc, #104]	; (1f78 <uart0_ISR+0x9c>)
    1f10:	b2c9      	uxtb	r1, r1
    1f12:	f000 ff12 	bl	2d3a <buffer_AddToEnd>
    1f16:	300a      	adds	r0, #10
    1f18:	d103      	bne.n	1f22 <uart0_ISR+0x46>
					u0_overflow_rx++;
    1f1a:	882b      	ldrh	r3, [r5, #0]
    1f1c:	3301      	adds	r3, #1
    1f1e:	b29b      	uxth	r3, r3
    1f20:	802b      	strh	r3, [r5, #0]
      		} while(U0LSR & U0LSR_RDR);										// Faa enquanto existe dados validos na FIFO de recepo
    1f22:	683b      	ldr	r3, [r7, #0]
    1f24:	07d8      	lsls	r0, r3, #31
    1f26:	d4f1      	bmi.n	1f0c <uart0_ISR+0x30>
    1f28:	e7db      	b.n	1ee2 <uart0_ISR+0x6>
     	// RETIRA OS DADOS DO BUFFER TX PARA A FIFO DE TRANSMISSO
     		// Essa interrupo  gerada quando a FIFO de transmisso de 16 bytes est vazia
			// O registrador UxTHR  o topo da FIFO de 16 bytes, ou seja,  o endereo da ltima posio a ser inserida da FIFO
      	case U0IIR_THRE_INT:               									// Interrupo da FIFO de 16 bytes quando est vazia
        	while (U0LSR & U0LSR_THRE) {									// Faa enquanto h espao na FIFO
        		if (buffer_IsEmpty(&u0_buf_tx) ) {							// Checa se o buffer de transmisso j est vazio
    1f2a:	4814      	ldr	r0, [pc, #80]	; (1f7c <uart0_ISR+0xa0>)
    1f2c:	f000 ff22 	bl	2d74 <buffer_IsEmpty>
    1f30:	b140      	cbz	r0, 1f44 <uart0_ISR+0x68>
        			u0_tx_running = pdFALSE;     							// Sinaliza que no existe dados para trasnmissao
    1f32:	4b13      	ldr	r3, [pc, #76]	; (1f80 <uart0_ISR+0xa4>)
    1f34:	2200      	movs	r2, #0
    1f36:	701a      	strb	r2, [r3, #0]
        			U0IER &= ~U0IER_ETBEI;                					// Desativa a interrupo de transmisso
    1f38:	4b12      	ldr	r3, [pc, #72]	; (1f84 <uart0_ISR+0xa8>)
    1f3a:	681a      	ldr	r2, [r3, #0]
    1f3c:	f022 0202 	bic.w	r2, r2, #2
    1f40:	601a      	str	r2, [r3, #0]
            		break;
    1f42:	e7ce      	b.n	1ee2 <uart0_ISR+0x6>
          		} else {
					#if (UART0_USE_HANDSHAKING == pdON) // AINDA NO TESTADO
	    			if (uart0_CTS()) // Checa se o receptor esteja pronto para eviar dados
					#endif
	          			U0THR = buffer_GetFromFront(&u0_buf_tx);			// Atribui o dado do buffer ao registrador de transmisso
    1f44:	480d      	ldr	r0, [pc, #52]	; (1f7c <uart0_ISR+0xa0>)
    1f46:	f000 fed6 	bl	2cf6 <buffer_GetFromFront>
    1f4a:	6020      	str	r0, [r4, #0]
    1f4c:	e000      	b.n	1f50 <uart0_ISR+0x74>

     	// RETIRA OS DADOS DO BUFFER TX PARA A FIFO DE TRANSMISSO
     		// Essa interrupo  gerada quando a FIFO de transmisso de 16 bytes est vazia
			// O registrador UxTHR  o topo da FIFO de 16 bytes, ou seja,  o endereo da ltima posio a ser inserida da FIFO
      	case U0IIR_THRE_INT:               									// Interrupo da FIFO de 16 bytes quando est vazia
        	while (U0LSR & U0LSR_THRE) {									// Faa enquanto h espao na FIFO
    1f4e:	4d08      	ldr	r5, [pc, #32]	; (1f70 <uart0_ISR+0x94>)
    1f50:	682b      	ldr	r3, [r5, #0]
    1f52:	0699      	lsls	r1, r3, #26
    1f54:	d4e9      	bmi.n	1f2a <uart0_ISR+0x4e>
    1f56:	e7c4      	b.n	1ee2 <uart0_ISR+0x6>
          	}
		    
		    break;

      	default:															// Interrupo desconhecida
        	U0LSR;															// Limpa registrador de status de linha
    1f58:	681b      	ldr	r3, [r3, #0]
        	U0RBR;															// Limpa o registrador de recepao de dados
    1f5a:	6823      	ldr	r3, [r4, #0]
	       	break;
    1f5c:	e7c1      	b.n	1ee2 <uart0_ISR+0x6>
	// Limpa interrupo
  	#if defined(arm7tdmi)
  	VICSoftIntClr = (1<<VIC_UART0);
	#endif
	#if defined (cortexm3)
	nvic_clearPendingIRQ(VIC_UART0);
    1f5e:	2005      	movs	r0, #5
	#endif

  	ISR_EXIT;																// Procedimento para saida da interrupo
}
    1f60:	e8bd 40f8 	ldmia.w	sp!, {r3, r4, r5, r6, r7, lr}
	// Limpa interrupo
  	#if defined(arm7tdmi)
  	VICSoftIntClr = (1<<VIC_UART0);
	#endif
	#if defined (cortexm3)
	nvic_clearPendingIRQ(VIC_UART0);
    1f64:	f7ff bb72 	b.w	164c <nvic_clearPendingIRQ>
    1f68:	4000c008 	.word	0x4000c008
    1f6c:	4000c000 	.word	0x4000c000
    1f70:	4000c014 	.word	0x4000c014
    1f74:	1000078a 	.word	0x1000078a
    1f78:	1000078c 	.word	0x1000078c
    1f7c:	10000798 	.word	0x10000798
    1f80:	10000788 	.word	0x10000788
    1f84:	4000c004 	.word	0x4000c004

Disassembly of section .text.showVicError:

00001f88 <showVicError>:
#if (MODE_DEVELOPMENT == pdON)
#include "uart0_irq.h"
#endif
#include "stdio_uc.h"

static void showVicError(int n) {
    1f88:	e92d 47f0 	stmdb	sp!, {r4, r5, r6, r7, r8, r9, sl, lr}
	irq_Disable();
    1f8c:	b672      	cpsid	i

	static int x;
	if (n>10) n=10;
	while(1) {
		for (x=0;x<n;x++) {	ledERROR_On(); buzzer_On(); delay_ms(250); ledERROR_Off(); buzzer_Off(); delay_ms(250);}
    1f8e:	4c15      	ldr	r4, [pc, #84]	; (1fe4 <showVicError+0x5c>)
    1f90:	f8df 9060 	ldr.w	r9, [pc, #96]	; 1ff4 <showVicError+0x6c>
    1f94:	280a      	cmp	r0, #10
    1f96:	bfb4      	ite	lt
    1f98:	4607      	movlt	r7, r0
    1f9a:	270a      	movge	r7, #10
    1f9c:	f04f 0800 	mov.w	r8, #0
    1fa0:	f8c4 8000 	str.w	r8, [r4]
    1fa4:	f8df a050 	ldr.w	sl, [pc, #80]	; 1ff8 <showVicError+0x70>
    1fa8:	e014      	b.n	1fd4 <showVicError+0x4c>
    1faa:	f04f 5600 	mov.w	r6, #536870912	; 0x20000000
    1fae:	f44f 0580 	mov.w	r5, #4194304	; 0x400000
    1fb2:	f8c9 6000 	str.w	r6, [r9]
    1fb6:	480c      	ldr	r0, [pc, #48]	; (1fe8 <showVicError+0x60>)
    1fb8:	f8ca 5000 	str.w	r5, [sl]
    1fbc:	f7ff fbdc 	bl	1778 <delay>
    1fc0:	4b0a      	ldr	r3, [pc, #40]	; (1fec <showVicError+0x64>)
    1fc2:	4809      	ldr	r0, [pc, #36]	; (1fe8 <showVicError+0x60>)
    1fc4:	601e      	str	r6, [r3, #0]
    1fc6:	f843 5c80 	str.w	r5, [r3, #-128]
    1fca:	f7ff fbd5 	bl	1778 <delay>
    1fce:	6823      	ldr	r3, [r4, #0]
    1fd0:	3301      	adds	r3, #1
    1fd2:	6023      	str	r3, [r4, #0]
    1fd4:	6823      	ldr	r3, [r4, #0]
    1fd6:	42bb      	cmp	r3, r7
    1fd8:	dbe7      	blt.n	1faa <showVicError+0x22>
		delay_ms(1000);
    1fda:	4805      	ldr	r0, [pc, #20]	; (1ff0 <showVicError+0x68>)
    1fdc:	f7ff fbcc 	bl	1778 <delay>
	}
    1fe0:	e7de      	b.n	1fa0 <showVicError+0x18>
    1fe2:	bf00      	nop
    1fe4:	100008d0 	.word	0x100008d0
    1fe8:	007f26c8 	.word	0x007f26c8
    1fec:	2009c09c 	.word	0x2009c09c
    1ff0:	01fc9f08 	.word	0x01fc9f08
    1ff4:	2009c098 	.word	0x2009c098
    1ff8:	2009c018 	.word	0x2009c018

Disassembly of section .text.startup.main:

00001ffc <main>:
}

int main(void) {
    1ffc:	b510      	push	{r4, lr}
	nvic_SetIntHandler(showVicError);
    1ffe:	482d      	ldr	r0, [pc, #180]	; (20b4 <main+0xb8>)
    2000:	f7ff fb4a 	bl	1698 <nvic_SetIntHandler>
  	// POSIO DOS VETORES DE INTERRUPES COM O USO DO BOOTLOADER

  	// REGISTRANDO AS ENTRADAS E SADAS PADRO AOS SEUS RESPECTIVOS DISPOSTIVOS
	// PORTA PARA CLI DEVE SER COM INTERRUPO
  	#if (MODE_DEVELOPMENT == pdON)
  	lgetchar_RegisterDev(uart0_GetChar);
    2004:	482c      	ldr	r0, [pc, #176]	; (20b8 <main+0xbc>)
    2006:	f000 fe4d 	bl	2ca4 <lgetchar_RegisterDev>
	lputchar_RegisterDev(uart0_PutChar);
    200a:	482c      	ldr	r0, [pc, #176]	; (20bc <main+0xc0>)
    200c:	f000 fe3e 	bl	2c8c <lputchar_RegisterDev>
	ldebug_RegisterDev(uart0_BasicPutChar);
    2010:	482b      	ldr	r0, [pc, #172]	; (20c0 <main+0xc4>)
    2012:	f000 fe41 	bl	2c98 <ldebug_RegisterDev>
	uart0_Init(115200);
    2016:	f44f 30e1 	mov.w	r0, #115200	; 0x1c200
    201a:	f7ff fe95 	bl	1d48 <uart0_Init>
	#endif

	RELAY1_DIR |= RELAY1;
    201e:	4b29      	ldr	r3, [pc, #164]	; (20c4 <main+0xc8>)
	RELAY6_DIR |= RELAY6;
	RELAY7_DIR |= RELAY7;
	RELAY8_DIR |= RELAY8;

	TP_DBGTICK_DIR |= TP_DBGTICK;
	TP_DBGTICK_OFF = TP_DBGTICK;
    2020:	2401      	movs	r4, #1
	lputchar_RegisterDev(uart0_PutChar);
	ldebug_RegisterDev(uart0_BasicPutChar);
	uart0_Init(115200);
	#endif

	RELAY1_DIR |= RELAY1;
    2022:	681a      	ldr	r2, [r3, #0]
    2024:	f042 0204 	orr.w	r2, r2, #4
    2028:	601a      	str	r2, [r3, #0]
	RELAY2_DIR |= RELAY2;
    202a:	4a27      	ldr	r2, [pc, #156]	; (20c8 <main+0xcc>)
    202c:	6811      	ldr	r1, [r2, #0]
    202e:	f041 7180 	orr.w	r1, r1, #16777216	; 0x1000000
    2032:	6011      	str	r1, [r2, #0]
	RELAY3_DIR |= RELAY3;
    2034:	6811      	ldr	r1, [r2, #0]
    2036:	f441 0100 	orr.w	r1, r1, #8388608	; 0x800000
    203a:	6011      	str	r1, [r2, #0]
	RELAY4_DIR |= RELAY4;
    203c:	6819      	ldr	r1, [r3, #0]
    203e:	f041 0140 	orr.w	r1, r1, #64	; 0x40
    2042:	6019      	str	r1, [r3, #0]
	RELAY5_DIR |= RELAY5;
    2044:	6819      	ldr	r1, [r3, #0]
    2046:	f041 0120 	orr.w	r1, r1, #32
    204a:	6019      	str	r1, [r3, #0]
	RELAY6_DIR |= RELAY6;
    204c:	6819      	ldr	r1, [r3, #0]
    204e:	f041 0110 	orr.w	r1, r1, #16
    2052:	6019      	str	r1, [r3, #0]
	RELAY7_DIR |= RELAY7;
    2054:	6819      	ldr	r1, [r3, #0]
    2056:	f041 0108 	orr.w	r1, r1, #8
    205a:	6019      	str	r1, [r3, #0]
	RELAY8_DIR |= RELAY8;
    205c:	6811      	ldr	r1, [r2, #0]
    205e:	f441 0180 	orr.w	r1, r1, #4194304	; 0x400000
    2062:	6011      	str	r1, [r2, #0]

	TP_DBGTICK_DIR |= TP_DBGTICK;
    2064:	681a      	ldr	r2, [r3, #0]
    2066:	f042 0201 	orr.w	r2, r2, #1
    206a:	601a      	str	r2, [r3, #0]
	TP_DBGTICK_OFF = TP_DBGTICK;
    206c:	61dc      	str	r4, [r3, #28]
	ledERROR_Init();
    206e:	6c1a      	ldr	r2, [r3, #64]	; 0x40
    2070:	f042 5200 	orr.w	r2, r2, #536870912	; 0x20000000
    2074:	641a      	str	r2, [r3, #64]	; 0x40
	app_Init();
    2076:	f000 f887 	bl	2188 <app_Init>
	systime_Init();
    207a:	f7ff fb13 	bl	16a4 <systime_Init>
	systime_SetIntHandler(app_Tick, 1); // Chamar o a funo callsystem a cada 1ms OBS: Levando em considerao o SYSTIME_IRQ_TICK_DIV
    207e:	4621      	mov	r1, r4
    2080:	4812      	ldr	r0, [pc, #72]	; (20cc <main+0xd0>)
    2082:	f7ff fb3b 	bl	16fc <systime_SetIntHandler>
	modbus_Init(control.modbusID);
    2086:	4b12      	ldr	r3, [pc, #72]	; (20d0 <main+0xd4>)
    2088:	6818      	ldr	r0, [r3, #0]
    208a:	f000 f999 	bl	23c0 <modbus_Init>

	irq_Enable(); 	// Habilitar interrupes
    208e:	b662      	cpsie	i

	#if (MODE_DEVELOPMENT == pdON)
	lprintf(CMD_TERMINATOR);
    2090:	4910      	ldr	r1, [pc, #64]	; (20d4 <main+0xd8>)
    2092:	4620      	mov	r0, r4
    2094:	f000 fe14 	bl	2cc0 <rprintf>
	lprintf(PROGAM_NAME);
    2098:	490f      	ldr	r1, [pc, #60]	; (20d8 <main+0xdc>)
    209a:	4620      	mov	r0, r4
    209c:	f000 fe10 	bl	2cc0 <rprintf>
	lprintf("ucLibc version "__VERSION CMD_TERMINATOR);
    20a0:	4620      	mov	r0, r4
    20a2:	490e      	ldr	r1, [pc, #56]	; (20dc <main+0xe0>)
    20a4:	f000 fe0c 	bl	2cc0 <rprintf>
	#endif

	while (1) {
		prompt_Process();
    20a8:	f000 fb02 	bl	26b0 <prompt_Process>
		modbus_Process();
    20ac:	f000 f9ea 	bl	2484 <modbus_Process>
    20b0:	e7fa      	b.n	20a8 <main+0xac>
    20b2:	bf00      	nop
    20b4:	00001f89 	.word	0x00001f89
    20b8:	00001e11 	.word	0x00001e11
    20bc:	00001e59 	.word	0x00001e59
    20c0:	00001ec1 	.word	0x00001ec1
    20c4:	2009c040 	.word	0x2009c040
    20c8:	2009c020 	.word	0x2009c020
    20cc:	000021e1 	.word	0x000021e1
    20d0:	10000010 	.word	0x10000010
    20d4:	00003dd1 	.word	0x00003dd1
    20d8:	00003ac4 	.word	0x00003ac4
    20dc:	00003b1e 	.word	0x00003b1e

Disassembly of section .text.app_SetOut:

000020e0 <app_SetOut>:
	app_SetOut(0);
	app_SetRelay(0x3d); // chaves 1, 3, 4, 5, 6 ligadas
}

void app_SetOut(uint act) {
	control.douts = act;
    20e0:	4b01      	ldr	r3, [pc, #4]	; (20e8 <app_SetOut+0x8>)
    20e2:	6058      	str	r0, [r3, #4]
    20e4:	4770      	bx	lr
    20e6:	bf00      	nop
    20e8:	10000010 	.word	0x10000010

Disassembly of section .text.app_SetRelay:

000020ec <app_SetRelay>:
	// TODO acionar ou no as saida do ARM
}

void app_SetRelay(uint act) {
	control.relays = act;
	if ((act & 0x1)>0) RELAY1_ON = RELAY1; else RELAY1_OFF = RELAY1;
    20ec:	f010 0f01 	tst.w	r0, #1
	control.douts = act;
	// TODO acionar ou no as saida do ARM
}

void app_SetRelay(uint act) {
	control.relays = act;
    20f0:	4b20      	ldr	r3, [pc, #128]	; (2174 <app_SetRelay+0x88>)
	if ((act & 0x1)>0) RELAY1_ON = RELAY1; else RELAY1_OFF = RELAY1;
    20f2:	bf14      	ite	ne
    20f4:	4a20      	ldrne	r2, [pc, #128]	; (2178 <app_SetRelay+0x8c>)
    20f6:	4a21      	ldreq	r2, [pc, #132]	; (217c <app_SetRelay+0x90>)
	control.douts = act;
	// TODO acionar ou no as saida do ARM
}

void app_SetRelay(uint act) {
	control.relays = act;
    20f8:	6098      	str	r0, [r3, #8]
	if ((act & 0x1)>0) RELAY1_ON = RELAY1; else RELAY1_OFF = RELAY1;
	if ((act & 0x2)>0) RELAY2_ON = RELAY2; else RELAY2_OFF = RELAY2;
    20fa:	f010 0f02 	tst.w	r0, #2
    20fe:	f04f 0304 	mov.w	r3, #4
	// TODO acionar ou no as saida do ARM
}

void app_SetRelay(uint act) {
	control.relays = act;
	if ((act & 0x1)>0) RELAY1_ON = RELAY1; else RELAY1_OFF = RELAY1;
    2102:	6013      	str	r3, [r2, #0]
	if ((act & 0x2)>0) RELAY2_ON = RELAY2; else RELAY2_OFF = RELAY2;
    2104:	bf14      	ite	ne
    2106:	4a1e      	ldrne	r2, [pc, #120]	; (2180 <app_SetRelay+0x94>)
    2108:	4a1e      	ldreq	r2, [pc, #120]	; (2184 <app_SetRelay+0x98>)
    210a:	f04f 7380 	mov.w	r3, #16777216	; 0x1000000
	if ((act & 0x4)>0) RELAY3_ON = RELAY3; else RELAY3_OFF = RELAY3;
    210e:	f010 0f04 	tst.w	r0, #4
}

void app_SetRelay(uint act) {
	control.relays = act;
	if ((act & 0x1)>0) RELAY1_ON = RELAY1; else RELAY1_OFF = RELAY1;
	if ((act & 0x2)>0) RELAY2_ON = RELAY2; else RELAY2_OFF = RELAY2;
    2112:	6013      	str	r3, [r2, #0]
	if ((act & 0x4)>0) RELAY3_ON = RELAY3; else RELAY3_OFF = RELAY3;
    2114:	bf14      	ite	ne
    2116:	4a1a      	ldrne	r2, [pc, #104]	; (2180 <app_SetRelay+0x94>)
    2118:	4a1a      	ldreq	r2, [pc, #104]	; (2184 <app_SetRelay+0x98>)
    211a:	f44f 0300 	mov.w	r3, #8388608	; 0x800000
	if ((act & 0x8)>0) RELAY4_ON = RELAY4; else RELAY4_OFF = RELAY4;
    211e:	f010 0f08 	tst.w	r0, #8

void app_SetRelay(uint act) {
	control.relays = act;
	if ((act & 0x1)>0) RELAY1_ON = RELAY1; else RELAY1_OFF = RELAY1;
	if ((act & 0x2)>0) RELAY2_ON = RELAY2; else RELAY2_OFF = RELAY2;
	if ((act & 0x4)>0) RELAY3_ON = RELAY3; else RELAY3_OFF = RELAY3;
    2122:	6013      	str	r3, [r2, #0]
	if ((act & 0x8)>0) RELAY4_ON = RELAY4; else RELAY4_OFF = RELAY4;
    2124:	bf14      	ite	ne
    2126:	4a14      	ldrne	r2, [pc, #80]	; (2178 <app_SetRelay+0x8c>)
    2128:	4a14      	ldreq	r2, [pc, #80]	; (217c <app_SetRelay+0x90>)
    212a:	f04f 0340 	mov.w	r3, #64	; 0x40
	if ((act & 0x10)>0) RELAY5_ON = RELAY5; else RELAY5_OFF = RELAY5;
    212e:	f010 0f10 	tst.w	r0, #16
void app_SetRelay(uint act) {
	control.relays = act;
	if ((act & 0x1)>0) RELAY1_ON = RELAY1; else RELAY1_OFF = RELAY1;
	if ((act & 0x2)>0) RELAY2_ON = RELAY2; else RELAY2_OFF = RELAY2;
	if ((act & 0x4)>0) RELAY3_ON = RELAY3; else RELAY3_OFF = RELAY3;
	if ((act & 0x8)>0) RELAY4_ON = RELAY4; else RELAY4_OFF = RELAY4;
    2132:	6013      	str	r3, [r2, #0]
	if ((act & 0x10)>0) RELAY5_ON = RELAY5; else RELAY5_OFF = RELAY5;
    2134:	bf14      	ite	ne
    2136:	4a10      	ldrne	r2, [pc, #64]	; (2178 <app_SetRelay+0x8c>)
    2138:	4a10      	ldreq	r2, [pc, #64]	; (217c <app_SetRelay+0x90>)
    213a:	f04f 0320 	mov.w	r3, #32
	if ((act & 0x20)>0) RELAY6_ON = RELAY6; else RELAY6_OFF = RELAY6;
    213e:	f010 0f20 	tst.w	r0, #32
	control.relays = act;
	if ((act & 0x1)>0) RELAY1_ON = RELAY1; else RELAY1_OFF = RELAY1;
	if ((act & 0x2)>0) RELAY2_ON = RELAY2; else RELAY2_OFF = RELAY2;
	if ((act & 0x4)>0) RELAY3_ON = RELAY3; else RELAY3_OFF = RELAY3;
	if ((act & 0x8)>0) RELAY4_ON = RELAY4; else RELAY4_OFF = RELAY4;
	if ((act & 0x10)>0) RELAY5_ON = RELAY5; else RELAY5_OFF = RELAY5;
    2142:	6013      	str	r3, [r2, #0]
	if ((act & 0x20)>0) RELAY6_ON = RELAY6; else RELAY6_OFF = RELAY6;
    2144:	bf14      	ite	ne
    2146:	4a0c      	ldrne	r2, [pc, #48]	; (2178 <app_SetRelay+0x8c>)
    2148:	4a0c      	ldreq	r2, [pc, #48]	; (217c <app_SetRelay+0x90>)
    214a:	f04f 0310 	mov.w	r3, #16
	if ((act & 0x40)>0) RELAY7_ON = RELAY7; else RELAY7_OFF = RELAY7;
    214e:	f010 0f40 	tst.w	r0, #64	; 0x40
	if ((act & 0x1)>0) RELAY1_ON = RELAY1; else RELAY1_OFF = RELAY1;
	if ((act & 0x2)>0) RELAY2_ON = RELAY2; else RELAY2_OFF = RELAY2;
	if ((act & 0x4)>0) RELAY3_ON = RELAY3; else RELAY3_OFF = RELAY3;
	if ((act & 0x8)>0) RELAY4_ON = RELAY4; else RELAY4_OFF = RELAY4;
	if ((act & 0x10)>0) RELAY5_ON = RELAY5; else RELAY5_OFF = RELAY5;
	if ((act & 0x20)>0) RELAY6_ON = RELAY6; else RELAY6_OFF = RELAY6;
    2152:	6013      	str	r3, [r2, #0]
	if ((act & 0x40)>0) RELAY7_ON = RELAY7; else RELAY7_OFF = RELAY7;
    2154:	bf14      	ite	ne
    2156:	4a08      	ldrne	r2, [pc, #32]	; (2178 <app_SetRelay+0x8c>)
    2158:	4a08      	ldreq	r2, [pc, #32]	; (217c <app_SetRelay+0x90>)
    215a:	f04f 0308 	mov.w	r3, #8
	if ((act & 0x80)>0) RELAY8_ON = RELAY8; else RELAY8_OFF = RELAY8;
    215e:	f010 0f80 	tst.w	r0, #128	; 0x80
	if ((act & 0x2)>0) RELAY2_ON = RELAY2; else RELAY2_OFF = RELAY2;
	if ((act & 0x4)>0) RELAY3_ON = RELAY3; else RELAY3_OFF = RELAY3;
	if ((act & 0x8)>0) RELAY4_ON = RELAY4; else RELAY4_OFF = RELAY4;
	if ((act & 0x10)>0) RELAY5_ON = RELAY5; else RELAY5_OFF = RELAY5;
	if ((act & 0x20)>0) RELAY6_ON = RELAY6; else RELAY6_OFF = RELAY6;
	if ((act & 0x40)>0) RELAY7_ON = RELAY7; else RELAY7_OFF = RELAY7;
    2162:	6013      	str	r3, [r2, #0]
	if ((act & 0x80)>0) RELAY8_ON = RELAY8; else RELAY8_OFF = RELAY8;
    2164:	bf14      	ite	ne
    2166:	4a06      	ldrne	r2, [pc, #24]	; (2180 <app_SetRelay+0x94>)
    2168:	4a06      	ldreq	r2, [pc, #24]	; (2184 <app_SetRelay+0x98>)
    216a:	f44f 0380 	mov.w	r3, #4194304	; 0x400000
    216e:	6013      	str	r3, [r2, #0]
    2170:	4770      	bx	lr
    2172:	bf00      	nop
    2174:	10000010 	.word	0x10000010
    2178:	2009c058 	.word	0x2009c058
    217c:	2009c05c 	.word	0x2009c05c
    2180:	2009c038 	.word	0x2009c038
    2184:	2009c03c 	.word	0x2009c03c

Disassembly of section .text.app_Init:

00002188 <app_Init>:
#include "app.h"
#include "stdio_uc.h"

// ###########################################################################################
// INIT APLICATION
void app_Init(void) {
    2188:	e92d 47f0 	stmdb	sp!, {r4, r5, r6, r7, r8, r9, sl, lr}
	control.nMultimetersGeren = nMULTIMETER_GEREN;
    218c:	4d13      	ldr	r5, [pc, #76]	; (21dc <app_Init+0x54>)
    218e:	230a      	movs	r3, #10
    2190:	60eb      	str	r3, [r5, #12]
	control.modbusID = 1; // TODO. colocar jumpers externo
	int x; for(x=0;x<nMULTIMETER;x++) {
    2192:	2400      	movs	r4, #0

// ###########################################################################################
// INIT APLICATION
void app_Init(void) {
	control.nMultimetersGeren = nMULTIMETER_GEREN;
	control.modbusID = 1; // TODO. colocar jumpers externo
    2194:	2301      	movs	r3, #1
    2196:	602b      	str	r3, [r5, #0]
	int x; for(x=0;x<nMULTIMETER;x++) {
		control.multimeter[x].stsCom = 0;
    2198:	46a0      	mov	r8, r4
		control.multimeter[x].sts = 0;
		memset(control.multimeter[x].model, 0 , 5);
    219a:	f04f 0a14 	mov.w	sl, #20
    219e:	46a9      	mov	r9, r5
    21a0:	fb0a 9704 	mla	r7, sl, r4, r9
// INIT APLICATION
void app_Init(void) {
	control.nMultimetersGeren = nMULTIMETER_GEREN;
	control.modbusID = 1; // TODO. colocar jumpers externo
	int x; for(x=0;x<nMULTIMETER;x++) {
		control.multimeter[x].stsCom = 0;
    21a4:	2600      	movs	r6, #0
		control.multimeter[x].sts = 0;
		memset(control.multimeter[x].model, 0 , 5);
    21a6:	2205      	movs	r2, #5
    21a8:	f107 001a 	add.w	r0, r7, #26
    21ac:	4631      	mov	r1, r6
// INIT APLICATION
void app_Init(void) {
	control.nMultimetersGeren = nMULTIMETER_GEREN;
	control.modbusID = 1; // TODO. colocar jumpers externo
	int x; for(x=0;x<nMULTIMETER;x++) {
		control.multimeter[x].stsCom = 0;
    21ae:	f8c5 8010 	str.w	r8, [r5, #16]
// ###########################################################################################
// INIT APLICATION
void app_Init(void) {
	control.nMultimetersGeren = nMULTIMETER_GEREN;
	control.modbusID = 1; // TODO. colocar jumpers externo
	int x; for(x=0;x<nMULTIMETER;x++) {
    21b2:	3401      	adds	r4, #1
		control.multimeter[x].stsCom = 0;
		control.multimeter[x].sts = 0;
    21b4:	f825 8f14 	strh.w	r8, [r5, #20]!
		memset(control.multimeter[x].model, 0 , 5);
    21b8:	f7fe fd1a 	bl	bf0 <memset>
		memset(control.multimeter[x].firmware, 0 , 3);
    21bc:	f107 001f 	add.w	r0, r7, #31
    21c0:	2203      	movs	r2, #3
    21c2:	4631      	mov	r1, r6
	control.nMultimetersGeren = nMULTIMETER_GEREN;
	control.modbusID = 1; // TODO. colocar jumpers externo
	int x; for(x=0;x<nMULTIMETER;x++) {
		control.multimeter[x].stsCom = 0;
		control.multimeter[x].sts = 0;
		memset(control.multimeter[x].model, 0 , 5);
    21c4:	3718      	adds	r7, #24
		memset(control.multimeter[x].firmware, 0 , 3);
    21c6:	f7fe fd13 	bl	bf0 <memset>
// ###########################################################################################
// INIT APLICATION
void app_Init(void) {
	control.nMultimetersGeren = nMULTIMETER_GEREN;
	control.modbusID = 1; // TODO. colocar jumpers externo
	int x; for(x=0;x<nMULTIMETER;x++) {
    21ca:	2c10      	cmp	r4, #16
    21cc:	d1e8      	bne.n	21a0 <app_Init+0x18>
	app_SetOut(0);
	app_SetRelay(0x3d); // chaves 1, 3, 4, 5, 6 ligadas
}

void app_SetOut(uint act) {
	control.douts = act;
    21ce:	4b03      	ldr	r3, [pc, #12]	; (21dc <app_Init+0x54>)
		memset(control.multimeter[x].model, 0 , 5);
		memset(control.multimeter[x].firmware, 0 , 3);
	}

	app_SetOut(0);
	app_SetRelay(0x3d); // chaves 1, 3, 4, 5, 6 ligadas
    21d0:	203d      	movs	r0, #61	; 0x3d
}

void app_SetOut(uint act) {
	control.douts = act;
    21d2:	605e      	str	r6, [r3, #4]
		memset(control.multimeter[x].firmware, 0 , 3);
	}

	app_SetOut(0);
	app_SetRelay(0x3d); // chaves 1, 3, 4, 5, 6 ligadas
}
    21d4:	e8bd 47f0 	ldmia.w	sp!, {r4, r5, r6, r7, r8, r9, sl, lr}
		memset(control.multimeter[x].model, 0 , 5);
		memset(control.multimeter[x].firmware, 0 , 3);
	}

	app_SetOut(0);
	app_SetRelay(0x3d); // chaves 1, 3, 4, 5, 6 ligadas
    21d8:	f7ff bf88 	b.w	20ec <app_SetRelay>
    21dc:	10000010 	.word	0x10000010

Disassembly of section .text.app_Tick:

000021e0 <app_Tick>:
// ###########################################################################################
// TICK
// Esta funo est sendo chamada a cada 1ms
void app_Tick(void) {
	// ATENO: Tempo de execuo de TODOS os TICKS dentro dessa funo NO pode ser superior a 1ms
	TP_DBGTICK_ON = TP_DBGTICK;
    21e0:	4b05      	ldr	r3, [pc, #20]	; (21f8 <app_Tick+0x18>)
}

// ###########################################################################################
// TICK
// Esta funo est sendo chamada a cada 1ms
void app_Tick(void) {
    21e2:	b510      	push	{r4, lr}
	// ATENO: Tempo de execuo de TODOS os TICKS dentro dessa funo NO pode ser superior a 1ms
	TP_DBGTICK_ON = TP_DBGTICK;
    21e4:	2401      	movs	r4, #1
    21e6:	601c      	str	r4, [r3, #0]
	modbus_MasterTick();
    21e8:	f000 ffa4 	bl	3134 <modbus_MasterTick>
	modbus_SlaveTick();
    21ec:	f001 f8a4 	bl	3338 <modbus_SlaveTick>
	TP_DBGTICK_OFF = TP_DBGTICK;
    21f0:	4b02      	ldr	r3, [pc, #8]	; (21fc <app_Tick+0x1c>)
    21f2:	601c      	str	r4, [r3, #0]
    21f4:	bd10      	pop	{r4, pc}
    21f6:	bf00      	nop
    21f8:	2009c058 	.word	0x2009c058
    21fc:	2009c05c 	.word	0x2009c05c

Disassembly of section .text.master_PutString:

00002200 <master_PutString>:

// ##################################################################################################
// MASTER
// ##################################################################################################
static int master_PutString(u8* buffer, u16 count) {
	rs485_ENTXM_ON = rs485_ENTXM;
    2200:	4b08      	ldr	r3, [pc, #32]	; (2224 <master_PutString+0x24>)
    2202:	f44f 3200 	mov.w	r2, #131072	; 0x20000


// ##################################################################################################
// MASTER
// ##################################################################################################
static int master_PutString(u8* buffer, u16 count) {
    2206:	b510      	push	{r4, lr}
	rs485_ENTXM_ON = rs485_ENTXM;
    2208:	601a      	str	r2, [r3, #0]
	int ret = uartM_WriteTx(buffer, count);
    220a:	f7ff fbb9 	bl	1980 <uart1_WriteTx>
    220e:	4604      	mov	r4, r0
	while (!uartM_EmptyTx()); // Vamos esperar que o serial envie a mensagem
    2210:	f7ff fbaa 	bl	1968 <uart1_EmptyTx>
    2214:	2800      	cmp	r0, #0
    2216:	d0fb      	beq.n	2210 <master_PutString+0x10>
	rs485_ENTXM_OFF = rs485_ENTXM;
    2218:	4b03      	ldr	r3, [pc, #12]	; (2228 <master_PutString+0x28>)
    221a:	f44f 3200 	mov.w	r2, #131072	; 0x20000
    221e:	601a      	str	r2, [r3, #0]
	return ret;
}
    2220:	4620      	mov	r0, r4
    2222:	bd10      	pop	{r4, pc}
    2224:	2009c018 	.word	0x2009c018
    2228:	2009c01c 	.word	0x2009c01c

Disassembly of section .text.slave_PutString:

0000222c <slave_PutString>:

// ##################################################################################################
// SLAVE
// ##################################################################################################
static int slave_PutString (u8* buffer, u16 count) {
	rs485_ENTXS_ON = rs485_ENTXS;
    222c:	4b07      	ldr	r3, [pc, #28]	; (224c <slave_PutString+0x20>)
    222e:	2202      	movs	r2, #2
}

// ##################################################################################################
// SLAVE
// ##################################################################################################
static int slave_PutString (u8* buffer, u16 count) {
    2230:	b510      	push	{r4, lr}
	rs485_ENTXS_ON = rs485_ENTXS;
    2232:	601a      	str	r2, [r3, #0]
	int ret = uartS_WriteTx(buffer, count);
    2234:	f7ff fd1c 	bl	1c70 <uart3_WriteTx>
    2238:	4604      	mov	r4, r0
	while (!uartS_EmptyTx()); // Vamos esperar que o serial envie a mensagem
    223a:	f7ff fd0d 	bl	1c58 <uart3_EmptyTx>
    223e:	2800      	cmp	r0, #0
    2240:	d0fb      	beq.n	223a <slave_PutString+0xe>
	rs485_ENTXS_OFF = rs485_ENTXS;
    2242:	4b03      	ldr	r3, [pc, #12]	; (2250 <slave_PutString+0x24>)
    2244:	2202      	movs	r2, #2
    2246:	601a      	str	r2, [r3, #0]
	return ret;
}
    2248:	4620      	mov	r0, r4
    224a:	bd10      	pop	{r4, pc}
    224c:	2009c058 	.word	0x2009c058
    2250:	2009c05c 	.word	0x2009c05c

Disassembly of section .text.slave_ReadRegisters:

00002254 <slave_ReadRegisters>:
//					modbusSLAVE_DEVICE_FAILURE:	Um irrecupervel erro ocorreu enquanto o dispositivo estava tentando
//													executar a ao solicitada.
// -------------------------------------------------------------------------------------------------------------------
static int slave_ReadRegisters(uint addrInit, u8* query, uint count) {
	// checa se o endereo est dentro dos limite
	if ((count == 0) || (count > 120) ) return modbusILLEGAL_DATA_ADDRESS;
    2254:	1e53      	subs	r3, r2, #1
    2256:	2b77      	cmp	r3, #119	; 0x77
//					modbusILLEGAL_DATA_ADDRESS:	Endereo do registrador inexistente
//					modbusILLEGAL_DATA_VALUE:	Valor invlido
//					modbusSLAVE_DEVICE_FAILURE:	Um irrecupervel erro ocorreu enquanto o dispositivo estava tentando
//													executar a ao solicitada.
// -------------------------------------------------------------------------------------------------------------------
static int slave_ReadRegisters(uint addrInit, u8* query, uint count) {
    2258:	e92d 43f0 	stmdb	sp!, {r4, r5, r6, r7, r8, r9, lr}
	// checa se o endereo est dentro dos limite
	if ((count == 0) || (count > 120) ) return modbusILLEGAL_DATA_ADDRESS;
    225c:	d84a      	bhi.n	22f4 <slave_ReadRegisters+0xa0>
	// REGISTRADORES DE TRABALHO
	case 0x10: *value = control.nMultimetersGeren; break;

	// ---------------------------------------------------------------------------------------------------------------------------------------
	// REGISTRADORES DAS SADAS DIGITAIS
	case 0x200: *value = control.douts; break;
    225e:	4c2f      	ldr	r4, [pc, #188]	; (231c <slave_ReadRegisters+0xc8>)
    2260:	f5a0 6080 	sub.w	r0, r0, #1024	; 0x400
//					modbusILLEGAL_DATA_ADDRESS:	Endereo do registrador inexistente
//					modbusILLEGAL_DATA_VALUE:	Valor invlido
//					modbusSLAVE_DEVICE_FAILURE:	Um irrecupervel erro ocorreu enquanto o dispositivo estava tentando
//													executar a ao solicitada.
// -------------------------------------------------------------------------------------------------------------------
static int slave_ReadRegisters(uint addrInit, u8* query, uint count) {
    2264:	0052      	lsls	r2, r2, #1
    2266:	2500      	movs	r5, #0
		#if (LOG_MODBUS_SLAVE == pdON)
    	plognp("    [addrMultimeter=0x%x] [addrbase=0x%x]"CMD_TERMINATOR, addrMultimeter, addr);
    	#endif
	}

	switch (addr) {
    2268:	f240 4c01 	movw	ip, #1025	; 0x401
	case 0x300: *value = control.relays; break;

	// ---------------------------------------------------------------------------------------------------------------------------------------
	// REGISTRADORES DOS MULTIMETROS
	case 0x400: *value = control.multimeter[addrMultimeter].stsCom; break;
	case 0x401: *value = control.multimeter[addrMultimeter].sts; break;
    226c:	2714      	movs	r7, #20
		#if (LOG_MODBUS_SLAVE == pdON)
    	plognp("    [addrMultimeter=0x%x] [addrbase=0x%x]"CMD_TERMINATOR, addrMultimeter, addr);
    	#endif
	}

	switch (addr) {
    226e:	f240 4802 	movw	r8, #1026	; 0x402
    2272:	f240 4903 	movw	r9, #1027	; 0x403
// -------------------------------------------------------------------------------------------------------------------
static int slave_GetValue(uint addr, u16* value) {
	int ret = 0;
	uint addrMultimeter=0;

	if ( (addr >= 0x400) && (addr <= 0x43F) ) {
    2276:	283f      	cmp	r0, #63	; 0x3f
//					modbusILLEGAL_DATA_ADDRESS:	Endereo do registrador inexistente
//					modbusILLEGAL_DATA_VALUE:	Valor invlido
//					modbusSLAVE_DEVICE_FAILURE:	Um irrecupervel erro ocorreu enquanto o dispositivo estava tentando
//													executar a ao solicitada.
// -------------------------------------------------------------------------------------------------------------------
static int slave_ReadRegisters(uint addrInit, u8* query, uint count) {
    2278:	f500 6380 	add.w	r3, r0, #1024	; 0x400
// -------------------------------------------------------------------------------------------------------------------
static int slave_GetValue(uint addr, u16* value) {
	int ret = 0;
	uint addrMultimeter=0;

	if ( (addr >= 0x400) && (addr <= 0x43F) ) {
    227c:	d805      	bhi.n	228a <slave_ReadRegisters+0x36>
		addrMultimeter = (uint)((addr-0x400)/4); // encontrar o indice do multimetro no vetor de acordo com o addr
		addr = (uint)((addr%4)+0x400); // Conveter sempre para os endereos bases
    227e:	f003 0303 	and.w	r3, r3, #3
static int slave_GetValue(uint addr, u16* value) {
	int ret = 0;
	uint addrMultimeter=0;

	if ( (addr >= 0x400) && (addr <= 0x43F) ) {
		addrMultimeter = (uint)((addr-0x400)/4); // encontrar o indice do multimetro no vetor de acordo com o addr
    2282:	0886      	lsrs	r6, r0, #2
		addr = (uint)((addr%4)+0x400); // Conveter sempre para os endereos bases
    2284:	f503 6380 	add.w	r3, r3, #1024	; 0x400
    2288:	e000      	b.n	228c <slave_ReadRegisters+0x38>
// Retorna:		0: Se a leitura foi feita com suscesso
//				-1: O endereo do registrador no existe (modbusILLEGAL_DATA_ADDRESS (02))
// -------------------------------------------------------------------------------------------------------------------
static int slave_GetValue(uint addr, u16* value) {
	int ret = 0;
	uint addrMultimeter=0;
    228a:	2600      	movs	r6, #0
		#if (LOG_MODBUS_SLAVE == pdON)
    	plognp("    [addrMultimeter=0x%x] [addrbase=0x%x]"CMD_TERMINATOR, addrMultimeter, addr);
    	#endif
	}

	switch (addr) {
    228c:	f5b3 7f00 	cmp.w	r3, #512	; 0x200
    2290:	d01c      	beq.n	22cc <slave_ReadRegisters+0x78>
    2292:	d807      	bhi.n	22a4 <slave_ReadRegisters+0x50>
    2294:	2b01      	cmp	r3, #1
    2296:	d033      	beq.n	2300 <slave_ReadRegisters+0xac>
    2298:	d32f      	bcc.n	22fa <slave_ReadRegisters+0xa6>
    229a:	2b02      	cmp	r3, #2
    229c:	d011      	beq.n	22c2 <slave_ReadRegisters+0x6e>
    229e:	2b10      	cmp	r3, #16
    22a0:	d128      	bne.n	22f4 <slave_ReadRegisters+0xa0>
    22a2:	e011      	b.n	22c8 <slave_ReadRegisters+0x74>
    22a4:	4563      	cmp	r3, ip
    22a6:	d019      	beq.n	22dc <slave_ReadRegisters+0x88>
    22a8:	d806      	bhi.n	22b8 <slave_ReadRegisters+0x64>
    22aa:	f5b3 7f40 	cmp.w	r3, #768	; 0x300
    22ae:	d00f      	beq.n	22d0 <slave_ReadRegisters+0x7c>
    22b0:	f5b3 6f80 	cmp.w	r3, #1024	; 0x400
    22b4:	d11e      	bne.n	22f4 <slave_ReadRegisters+0xa0>
    22b6:	e00d      	b.n	22d4 <slave_ReadRegisters+0x80>
    22b8:	4543      	cmp	r3, r8
    22ba:	d013      	beq.n	22e4 <slave_ReadRegisters+0x90>
    22bc:	454b      	cmp	r3, r9
    22be:	d119      	bne.n	22f4 <slave_ReadRegisters+0xa0>
    22c0:	e014      	b.n	22ec <slave_ReadRegisters+0x98>

	// ---------------------------------------------------------------------------------------------------------------------------------------
	// ID
	case 0:	*value = (MODEL[1] << 8) | MODEL[0]; break;
	case 1:	*value = (MODEL[3] << 8) | MODEL[2]; break;
	case 2:	*value = (FIRMWARE_VERSION[2] << 8) | FIRMWARE_VERSION[0]; break;
    22c2:	f243 1332 	movw	r3, #12594	; 0x3132
    22c6:	e01d      	b.n	2304 <slave_ReadRegisters+0xb0>

	// ---------------------------------------------------------------------------------------------------------------------------------------
	// REGISTRADORES DE TRABALHO
	case 0x10: *value = control.nMultimetersGeren; break;
    22c8:	89a3      	ldrh	r3, [r4, #12]
    22ca:	e01b      	b.n	2304 <slave_ReadRegisters+0xb0>

	// ---------------------------------------------------------------------------------------------------------------------------------------
	// REGISTRADORES DAS SADAS DIGITAIS
	case 0x200: *value = control.douts; break;
    22cc:	88a3      	ldrh	r3, [r4, #4]
    22ce:	e019      	b.n	2304 <slave_ReadRegisters+0xb0>

	// ---------------------------------------------------------------------------------------------------------------------------------------
	// REGISTRADORES DOS RELES
	case 0x300: *value = control.relays; break;
    22d0:	8923      	ldrh	r3, [r4, #8]
    22d2:	e017      	b.n	2304 <slave_ReadRegisters+0xb0>

	// ---------------------------------------------------------------------------------------------------------------------------------------
	// REGISTRADORES DOS MULTIMETROS
	case 0x400: *value = control.multimeter[addrMultimeter].stsCom; break;
    22d4:	fb07 4606 	mla	r6, r7, r6, r4
    22d8:	8a33      	ldrh	r3, [r6, #16]
    22da:	e013      	b.n	2304 <slave_ReadRegisters+0xb0>
	case 0x401: *value = control.multimeter[addrMultimeter].sts; break;
    22dc:	fb07 4606 	mla	r6, r7, r6, r4
    22e0:	8ab3      	ldrh	r3, [r6, #20]
    22e2:	e00f      	b.n	2304 <slave_ReadRegisters+0xb0>
	case 0x402: *value = control.multimeter[addrMultimeter].valueLSW; break;
    22e4:	fb07 4606 	mla	r6, r7, r6, r4
    22e8:	8af3      	ldrh	r3, [r6, #22]
    22ea:	e00b      	b.n	2304 <slave_ReadRegisters+0xb0>
	case 0x403: *value = control.multimeter[addrMultimeter].valueMSW; break;
    22ec:	fb07 4606 	mla	r6, r7, r6, r4
    22f0:	8b33      	ldrh	r3, [r6, #24]
    22f2:	e007      	b.n	2304 <slave_ReadRegisters+0xb0>
//					modbusSLAVE_DEVICE_FAILURE:	Um irrecupervel erro ocorreu enquanto o dispositivo estava tentando
//													executar a ao solicitada.
// -------------------------------------------------------------------------------------------------------------------
static int slave_ReadRegisters(uint addrInit, u8* query, uint count) {
	// checa se o endereo est dentro dos limite
	if ((count == 0) || (count > 120) ) return modbusILLEGAL_DATA_ADDRESS;
    22f4:	2002      	movs	r0, #2
    22f6:	e8bd 83f0 	ldmia.w	sp!, {r4, r5, r6, r7, r8, r9, pc}

	switch (addr) {

	// ---------------------------------------------------------------------------------------------------------------------------------------
	// ID
	case 0:	*value = (MODEL[1] << 8) | MODEL[0]; break;
    22fa:	f247 2368 	movw	r3, #29288	; 0x7268
    22fe:	e001      	b.n	2304 <slave_ReadRegisters+0xb0>
	case 1:	*value = (MODEL[3] << 8) | MODEL[2]; break;
    2300:	f243 1330 	movw	r3, #12592	; 0x3130
	uint i; for (i=0;i<count;i++) {
		ret = slave_GetValue(addrInit+i, &value);
		if (ret == -1) return modbusILLEGAL_DATA_ADDRESS;
		if (ret == -2) return modbusILLEGAL_DATA_VALUE;

		query[2*i] = (u8)(value>>8);
    2304:	0a1e      	lsrs	r6, r3, #8
    2306:	554e      	strb	r6, [r1, r5]
//					modbusILLEGAL_DATA_ADDRESS:	Endereo do registrador inexistente
//					modbusILLEGAL_DATA_VALUE:	Valor invlido
//					modbusSLAVE_DEVICE_FAILURE:	Um irrecupervel erro ocorreu enquanto o dispositivo estava tentando
//													executar a ao solicitada.
// -------------------------------------------------------------------------------------------------------------------
static int slave_ReadRegisters(uint addrInit, u8* query, uint count) {
    2308:	194e      	adds	r6, r1, r5
    230a:	3502      	adds	r5, #2
    230c:	3001      	adds	r0, #1
	if ((count == 0) || (count > 120) ) return modbusILLEGAL_DATA_ADDRESS;

	// preenche o buffer modbus com os valores dos registradores
	int ret;
	u16 value;
	uint i; for (i=0;i<count;i++) {
    230e:	4295      	cmp	r5, r2
		ret = slave_GetValue(addrInit+i, &value);
		if (ret == -1) return modbusILLEGAL_DATA_ADDRESS;
		if (ret == -2) return modbusILLEGAL_DATA_VALUE;

		query[2*i] = (u8)(value>>8);
		query[2*i+1] = (u8)(value&0xFF);
    2310:	7073      	strb	r3, [r6, #1]
	if ((count == 0) || (count > 120) ) return modbusILLEGAL_DATA_ADDRESS;

	// preenche o buffer modbus com os valores dos registradores
	int ret;
	u16 value;
	uint i; for (i=0;i<count;i++) {
    2312:	d1b0      	bne.n	2276 <slave_ReadRegisters+0x22>
		#if (LOG_MODBUS_SLAVE == pdON)
    	plognp("MODBUS: [i=%d %d] [a=0x%x] [msb=0x%x %c] [lsb=0x%x %c]"CMD_TERMINATOR, i, count, addrInit+i, query[2*i], query[2*i], query[2*i+1], query[2*i+1]);
    	#endif
	}

	return modbusNO_ERROR; // retorna sinalizando que a operao ocorreu bem
    2314:	2000      	movs	r0, #0
}
    2316:	e8bd 83f0 	ldmia.w	sp!, {r4, r5, r6, r7, r8, r9, pc}
    231a:	bf00      	nop
    231c:	10000010 	.word	0x10000010

Disassembly of section .text.slave_SetValue:

00002320 <slave_SetValue>:
//				-3: No momento o dispositivo no pode gravar o valor, ou executar a tarefa (modbusSLAVE_DEVICE_FAILURE (4))
// -------------------------------------------------------------------------------------------------------------------
static int slave_SetValue(uint addr, u16 value __attribute__ ((unused))) {
	int ret = 0;

	switch (addr) {
    2320:	f5b0 7f00 	cmp.w	r0, #512	; 0x200
// Retorna:		0: Se a gravao foi feita com suscesso
//				-1: O endereo do registrador no existe (modbusILLEGAL_DATA_ADDRESS (2))
// 				-2: Dado a ser gravado  invlido (modbusILLEGAL_DATA_VALUE (3))
//				-3: No momento o dispositivo no pode gravar o valor, ou executar a tarefa (modbusSLAVE_DEVICE_FAILURE (4))
// -------------------------------------------------------------------------------------------------------------------
static int slave_SetValue(uint addr, u16 value __attribute__ ((unused))) {
    2324:	b508      	push	{r3, lr}
	int ret = 0;

	switch (addr) {
    2326:	d00a      	beq.n	233e <slave_SetValue+0x1e>
    2328:	f5b0 7f40 	cmp.w	r0, #768	; 0x300
    232c:	d00b      	beq.n	2346 <slave_SetValue+0x26>
    232e:	2810      	cmp	r0, #16
    2330:	d10d      	bne.n	234e <slave_SetValue+0x2e>

	// ---------------------------------------------------------------------------------------------------------------------------------------
	// REGISTRADORES DE TRABALHO
	case 0x10:
		// if ( (value < 1) || (value > 16)) return -2; // RERTIRADO PORQUE O PESSOAL DA UFSC NO EST SABENDO COMO TRATAR AS EXCEES NO SBC
		if ( (value > 0) && (value < 17)) control.nMultimetersGeren = value;
    2332:	1e4b      	subs	r3, r1, #1
    2334:	2b0f      	cmp	r3, #15
    2336:	d80d      	bhi.n	2354 <slave_SetValue+0x34>
    2338:	4b07      	ldr	r3, [pc, #28]	; (2358 <slave_SetValue+0x38>)
    233a:	60d9      	str	r1, [r3, #12]
    233c:	e00a      	b.n	2354 <slave_SetValue+0x34>
		break;

	// ---------------------------------------------------------------------------------------------------------------------------------------
	// REGISTRADORES DAS SADAS DIGITAIS
	case 0x200: app_SetOut(value); break;
    233e:	4608      	mov	r0, r1
    2340:	f7ff fece 	bl	20e0 <app_SetOut>
    2344:	e006      	b.n	2354 <slave_SetValue+0x34>

	// ---------------------------------------------------------------------------------------------------------------------------------------
	// REGISTRADORES DOS RELES
	case 0x300: app_SetRelay(value); break;
    2346:	4608      	mov	r0, r1
    2348:	f7ff fed0 	bl	20ec <app_SetRelay>
    234c:	e002      	b.n	2354 <slave_SetValue+0x34>

	// ---------------------------------------------------------------------------------------------------------------------------------------
	// retorna sinalizando acesso em um registrador invlido
	default:
		ret = -1;
    234e:	f04f 30ff 	mov.w	r0, #4294967295
    2352:	bd08      	pop	{r3, pc}

	// ---------------------------------------------------------------------------------------------------------------------------------------
	// REGISTRADORES DE TRABALHO
	case 0x10:
		// if ( (value < 1) || (value > 16)) return -2; // RERTIRADO PORQUE O PESSOAL DA UFSC NO EST SABENDO COMO TRATAR AS EXCEES NO SBC
		if ( (value > 0) && (value < 17)) control.nMultimetersGeren = value;
    2354:	2000      	movs	r0, #0
	default:
		ret = -1;
	}

	return ret;
}
    2356:	bd08      	pop	{r3, pc}
    2358:	10000010 	.word	0x10000010

Disassembly of section .text.slave_WriteRegister:

0000235c <slave_WriteRegister>:
//					modbusILLEGAL_DATA_VALUE:	Valor para escrita  invlido
//					modbusSLAVE_DEVICE_FAILURE:	Um irrecupervel erro ocorreu enquanto o dispositivo estava tentando
//													executar a ao solicitada.
// -------------------------------------------------------------------------------------------------------------------

static int slave_WriteRegister(uint addr, u16 value) {
    235c:	b508      	push	{r3, lr}

	#if (LOG_MODBUS_SLAVE == pdON)
    plognp("MODBUS: WRITE REG [a=0x%x] [val=0x%x]"CMD_TERMINATOR, addr, value);
    #endif

	ret = slave_SetValue(addr, value);
    235e:	f7ff ffdf 	bl	2320 <slave_SetValue>
	if (ret == -1) ret = modbusILLEGAL_DATA_ADDRESS;
    2362:	1c42      	adds	r2, r0, #1
    2364:	d007      	beq.n	2376 <slave_WriteRegister+0x1a>
	else if (ret == -2) ret = modbusILLEGAL_DATA_VALUE;
    2366:	1c83      	adds	r3, r0, #2
    2368:	d007      	beq.n	237a <slave_WriteRegister+0x1e>
	else if (ret == -3) ret = modbusSLAVE_DEVICE_FAILURE;
    236a:	f110 0f03 	cmn.w	r0, #3
    236e:	bf0c      	ite	eq
    2370:	2004      	moveq	r0, #4
    2372:	2000      	movne	r0, #0
    2374:	bd08      	pop	{r3, pc}
	#if (LOG_MODBUS_SLAVE == pdON)
    plognp("MODBUS: WRITE REG [a=0x%x] [val=0x%x]"CMD_TERMINATOR, addr, value);
    #endif

	ret = slave_SetValue(addr, value);
	if (ret == -1) ret = modbusILLEGAL_DATA_ADDRESS;
    2376:	2002      	movs	r0, #2
    2378:	bd08      	pop	{r3, pc}
	else if (ret == -2) ret = modbusILLEGAL_DATA_VALUE;
    237a:	2003      	movs	r0, #3
	else if (ret == -3) ret = modbusSLAVE_DEVICE_FAILURE;
	else ret = modbusNO_ERROR; // retorna sinalizando que a operao ocorreu bem

    return ret;
}
    237c:	bd08      	pop	{r3, pc}

Disassembly of section .text.slave_WriteRegisters:

0000237e <slave_WriteRegisters>:
//													executar a ao solicitada.
// -------------------------------------------------------------------------------------------------------------------
static int slave_WriteRegisters(uint addrInit, u8* query, uint count) {
	// checa se o endereo est dentro dos limite
	//if ((count == 0) || (addrInit + (count-1) >= 3)) return modbusILLEGAL_DATA_ADDRESS;
	if ((count == 0) || (count > 120) ) return modbusILLEGAL_DATA_ADDRESS;
    237e:	1e53      	subs	r3, r2, #1
    2380:	2b77      	cmp	r3, #119	; 0x77
//					modbusILLEGAL_DATA_ADDRESS:	Endereo do registrador inexistente
//					modbusILLEGAL_DATA_VALUE:	Valor para escrita  invlido
//					modbusSLAVE_DEVICE_FAILURE:	Um irrecupervel erro ocorreu enquanto o dispositivo estava tentando
//													executar a ao solicitada.
// -------------------------------------------------------------------------------------------------------------------
static int slave_WriteRegisters(uint addrInit, u8* query, uint count) {
    2382:	b570      	push	{r4, r5, r6, lr}
    2384:	4604      	mov	r4, r0
	// checa se o endereo est dentro dos limite
	//if ((count == 0) || (addrInit + (count-1) >= 3)) return modbusILLEGAL_DATA_ADDRESS;
	if ((count == 0) || (count > 120) ) return modbusILLEGAL_DATA_ADDRESS;
    2386:	d818      	bhi.n	23ba <slave_WriteRegisters+0x3c>
    2388:	460d      	mov	r5, r1
//					modbusILLEGAL_DATA_ADDRESS:	Endereo do registrador inexistente
//					modbusILLEGAL_DATA_VALUE:	Valor para escrita  invlido
//					modbusSLAVE_DEVICE_FAILURE:	Um irrecupervel erro ocorreu enquanto o dispositivo estava tentando
//													executar a ao solicitada.
// -------------------------------------------------------------------------------------------------------------------
static int slave_WriteRegisters(uint addrInit, u8* query, uint count) {
    238a:	1816      	adds	r6, r2, r0
	if ((count == 0) || (count > 120) ) return modbusILLEGAL_DATA_ADDRESS;

	// salva os valores recebidos nos seus respectivos registradores
	int ret;
	uint i; for (i=0;i<count;i++) {
		ret = slave_SetValue(addrInit+i, (((u8)query[2*i]<<8) | query[2*i+1]));
    238c:	786b      	ldrb	r3, [r5, #1]
    238e:	7829      	ldrb	r1, [r5, #0]
    2390:	4620      	mov	r0, r4
    2392:	ea43 2101 	orr.w	r1, r3, r1, lsl #8
    2396:	f7ff ffc3 	bl	2320 <slave_SetValue>
		if (ret == -1) return modbusILLEGAL_DATA_ADDRESS;
    239a:	1c43      	adds	r3, r0, #1
    239c:	d00d      	beq.n	23ba <slave_WriteRegisters+0x3c>
		else if (ret == -2) return modbusILLEGAL_DATA_VALUE;
    239e:	1c81      	adds	r1, r0, #2
    23a0:	d007      	beq.n	23b2 <slave_WriteRegisters+0x34>
		else if (ret == -3) return modbusSLAVE_DEVICE_FAILURE;
    23a2:	3003      	adds	r0, #3
    23a4:	d007      	beq.n	23b6 <slave_WriteRegisters+0x38>
    23a6:	3401      	adds	r4, #1
    23a8:	3502      	adds	r5, #2
	//if ((count == 0) || (addrInit + (count-1) >= 3)) return modbusILLEGAL_DATA_ADDRESS;
	if ((count == 0) || (count > 120) ) return modbusILLEGAL_DATA_ADDRESS;

	// salva os valores recebidos nos seus respectivos registradores
	int ret;
	uint i; for (i=0;i<count;i++) {
    23aa:	42b4      	cmp	r4, r6
    23ac:	d1ee      	bne.n	238c <slave_WriteRegisters+0xe>
		#if (LOG_MODBUS_SLAVE == pdON)
    	plognp("MODBUS: [a=0x%x] [v=0x%x]"CMD_TERMINATOR, addrInit, (((u8)query[2*i]<<8) | query[2*i+1]));
    	#endif
	}

	return modbusNO_ERROR; // retorna sinalizando que a operao ocorreu bem
    23ae:	2000      	movs	r0, #0
    23b0:	bd70      	pop	{r4, r5, r6, pc}
	// salva os valores recebidos nos seus respectivos registradores
	int ret;
	uint i; for (i=0;i<count;i++) {
		ret = slave_SetValue(addrInit+i, (((u8)query[2*i]<<8) | query[2*i+1]));
		if (ret == -1) return modbusILLEGAL_DATA_ADDRESS;
		else if (ret == -2) return modbusILLEGAL_DATA_VALUE;
    23b2:	2003      	movs	r0, #3
    23b4:	bd70      	pop	{r4, r5, r6, pc}
		else if (ret == -3) return modbusSLAVE_DEVICE_FAILURE;
    23b6:	2004      	movs	r0, #4
    23b8:	bd70      	pop	{r4, r5, r6, pc}
//													executar a ao solicitada.
// -------------------------------------------------------------------------------------------------------------------
static int slave_WriteRegisters(uint addrInit, u8* query, uint count) {
	// checa se o endereo est dentro dos limite
	//if ((count == 0) || (addrInit + (count-1) >= 3)) return modbusILLEGAL_DATA_ADDRESS;
	if ((count == 0) || (count > 120) ) return modbusILLEGAL_DATA_ADDRESS;
    23ba:	2002      	movs	r0, #2
    	plognp("MODBUS: [a=0x%x] [v=0x%x]"CMD_TERMINATOR, addrInit, (((u8)query[2*i]<<8) | query[2*i+1]));
    	#endif
	}

	return modbusNO_ERROR; // retorna sinalizando que a operao ocorreu bem
}
    23bc:	bd70      	pop	{r4, r5, r6, pc}

Disassembly of section .text.modbus_Init:

000023c0 <modbus_Init>:
static int slave_WriteRegister(uint addr, u16 value);
static int slave_WriteRegisters(uint addrInit, u8* query, uint count);

static int master_PutString(u8* buffer, u16 count);

void modbus_Init(uint id) {
    23c0:	b507      	push	{r0, r1, r2, lr}
	// SLAVE
	modbus_SlaveInit(id, slave_PutString, uartS_GetChar, uartS_BufferQtdRx, uartS_ClearBufferRx);
    23c2:	4b17      	ldr	r3, [pc, #92]	; (2420 <modbus_Init+0x60>)
    23c4:	4917      	ldr	r1, [pc, #92]	; (2424 <modbus_Init+0x64>)
    23c6:	9300      	str	r3, [sp, #0]
    23c8:	4a17      	ldr	r2, [pc, #92]	; (2428 <modbus_Init+0x68>)
    23ca:	4b18      	ldr	r3, [pc, #96]	; (242c <modbus_Init+0x6c>)
    23cc:	f000 fee2 	bl	3194 <modbus_SlaveInit>
	modbus_SlaveAppendFunctions(slave_ReadRegisters, slave_WriteRegister, slave_WriteRegisters);
    23d0:	4917      	ldr	r1, [pc, #92]	; (2430 <modbus_Init+0x70>)
    23d2:	4818      	ldr	r0, [pc, #96]	; (2434 <modbus_Init+0x74>)
    23d4:	4a18      	ldr	r2, [pc, #96]	; (2438 <modbus_Init+0x78>)
    23d6:	f000 fef1 	bl	31bc <modbus_SlaveAppendFunctions>
	rs485_ENTXS_DIR |= rs485_ENTXS;
    23da:	4b18      	ldr	r3, [pc, #96]	; (243c <modbus_Init+0x7c>)
	rs485_ENTXS_OFF = rs485_ENTXS;
	uartS_Init(BAUDRATE_SBC);
    23dc:	f44f 4061 	mov.w	r0, #57600	; 0xe100

void modbus_Init(uint id) {
	// SLAVE
	modbus_SlaveInit(id, slave_PutString, uartS_GetChar, uartS_BufferQtdRx, uartS_ClearBufferRx);
	modbus_SlaveAppendFunctions(slave_ReadRegisters, slave_WriteRegister, slave_WriteRegisters);
	rs485_ENTXS_DIR |= rs485_ENTXS;
    23e0:	681a      	ldr	r2, [r3, #0]
    23e2:	f042 0202 	orr.w	r2, r2, #2
    23e6:	601a      	str	r2, [r3, #0]
	rs485_ENTXS_OFF = rs485_ENTXS;
    23e8:	2202      	movs	r2, #2
    23ea:	61da      	str	r2, [r3, #28]
	uartS_Init(BAUDRATE_SBC);
    23ec:	f7ff fb4c 	bl	1a88 <uart3_Init>

	// MASTER
	modbus_MasterInit(master_PutString, uartM_GetChar, uartM_ClearBufferRx);
    23f0:	4913      	ldr	r1, [pc, #76]	; (2440 <modbus_Init+0x80>)
    23f2:	4a14      	ldr	r2, [pc, #80]	; (2444 <modbus_Init+0x84>)
    23f4:	4814      	ldr	r0, [pc, #80]	; (2448 <modbus_Init+0x88>)
    23f6:	f000 fd67 	bl	2ec8 <modbus_MasterInit>
	modbus_MasterTimeout(3000);
    23fa:	f640 30b8 	movw	r0, #3000	; 0xbb8
    23fe:	f000 fd7d 	bl	2efc <modbus_MasterTimeout>
	rs485_ENTXM_DIR |= rs485_ENTXM;
    2402:	4b12      	ldr	r3, [pc, #72]	; (244c <modbus_Init+0x8c>)
	rs485_ENTXM_OFF = rs485_ENTXM;
	uartM_Init(BAUDRATE_MULTIMETER);
    2404:	f44f 4061 	mov.w	r0, #57600	; 0xe100
	uartS_Init(BAUDRATE_SBC);

	// MASTER
	modbus_MasterInit(master_PutString, uartM_GetChar, uartM_ClearBufferRx);
	modbus_MasterTimeout(3000);
	rs485_ENTXM_DIR |= rs485_ENTXM;
    2408:	681a      	ldr	r2, [r3, #0]
    240a:	f442 3200 	orr.w	r2, r2, #131072	; 0x20000
    240e:	601a      	str	r2, [r3, #0]
	rs485_ENTXM_OFF = rs485_ENTXM;
    2410:	f44f 3200 	mov.w	r2, #131072	; 0x20000
    2414:	61da      	str	r2, [r3, #28]
	uartM_Init(BAUDRATE_MULTIMETER);
}
    2416:	b003      	add	sp, #12
    2418:	f85d eb04 	ldr.w	lr, [sp], #4
	// MASTER
	modbus_MasterInit(master_PutString, uartM_GetChar, uartM_ClearBufferRx);
	modbus_MasterTimeout(3000);
	rs485_ENTXM_DIR |= rs485_ENTXM;
	rs485_ENTXM_OFF = rs485_ENTXM;
	uartM_Init(BAUDRATE_MULTIMETER);
    241c:	f7ff b9b0 	b.w	1780 <uart1_Init>
    2420:	00001b7d 	.word	0x00001b7d
    2424:	0000222d 	.word	0x0000222d
    2428:	00001b35 	.word	0x00001b35
    242c:	00001bb9 	.word	0x00001bb9
    2430:	0000235d 	.word	0x0000235d
    2434:	00002255 	.word	0x00002255
    2438:	0000237f 	.word	0x0000237f
    243c:	2009c040 	.word	0x2009c040
    2440:	00001851 	.word	0x00001851
    2444:	00001899 	.word	0x00001899
    2448:	00002201 	.word	0x00002201
    244c:	2009c000 	.word	0x2009c000

Disassembly of section .text.modbus_SendCommand:

00002450 <modbus_SendCommand>:
// slaveID. Endereo do escravo a ser acessado
// c: Tipo de comando para ser enviado ao escravo
// funcResponse: Ponteiro da funo para processar a resposta da comunicao
//void modbus_SendCommand(uint slaveID, tCommand cmd, int (*funcComResponse)(void)) {
typedef enum {readREGS, writeREG, writeREGS} tcmd;
void modbus_SendCommand(uint slaveID, tCommand c) {
    2450:	b510      	push	{r4, lr}
    if (waitResponse) return;// pdFAIL;
    2452:	4c09      	ldr	r4, [pc, #36]	; (2478 <modbus_SendCommand+0x28>)
    2454:	6823      	ldr	r3, [r4, #0]
    2456:	b96b      	cbnz	r3, 2474 <modbus_SendCommand+0x24>

	cmd = c;
    2458:	4b08      	ldr	r3, [pc, #32]	; (247c <modbus_SendCommand+0x2c>)
        ret = modbus_MasterWriteRegisters(slaveID, addrInit, nRegs, regs);
    } else {
    	#if (LOG_MODBUS_MASTER == pdON)
    	plognp("modbus ReadRegs [slave %d] [reg 0x%x] [len %d]"CMD_TERMINATOR, slaveID, addrInit, nRegs);
    	#endif
		ret = modbus_MasterReadRegisters(slaveID, addrInit, nRegs, regs);
    245a:	2203      	movs	r2, #3
//void modbus_SendCommand(uint slaveID, tCommand cmd, int (*funcComResponse)(void)) {
typedef enum {readREGS, writeREG, writeREGS} tcmd;
void modbus_SendCommand(uint slaveID, tCommand c) {
    if (waitResponse) return;// pdFAIL;

	cmd = c;
    245c:	7019      	strb	r1, [r3, #0]
        ret = modbus_MasterWriteRegisters(slaveID, addrInit, nRegs, regs);
    } else {
    	#if (LOG_MODBUS_MASTER == pdON)
    	plognp("modbus ReadRegs [slave %d] [reg 0x%x] [len %d]"CMD_TERMINATOR, slaveID, addrInit, nRegs);
    	#endif
		ret = modbus_MasterReadRegisters(slaveID, addrInit, nRegs, regs);
    245e:	2902      	cmp	r1, #2
    2460:	bf0c      	ite	eq
    2462:	f44f 7100 	moveq.w	r1, #512	; 0x200
    2466:	2100      	movne	r1, #0
    2468:	4b05      	ldr	r3, [pc, #20]	; (2480 <modbus_SendCommand+0x30>)
    246a:	f000 fd59 	bl	2f20 <modbus_MasterReadRegisters>
	}

	// se foi enviado com sucesso ficaremos na espera da resposta do multimetro
	if (ret == pdPASS) waitResponse = pdTRUE;
    246e:	2801      	cmp	r0, #1
    2470:	bf08      	it	eq
    2472:	6020      	streq	r0, [r4, #0]
    2474:	bd10      	pop	{r4, pc}
    2476:	bf00      	nop
    2478:	100008d8 	.word	0x100008d8
    247c:	100008d4 	.word	0x100008d4
    2480:	100008dc 	.word	0x100008dc

Disassembly of section .text.modbus_Process:

00002484 <modbus_Process>:
	else plognp("modbus err[%d] send querie"CMD_TERMINATOR, modbus_MasterReadStatus());
    #endif
}

static uint multimeterAccess = 1;
void modbus_Process(void) {
    2484:	b570      	push	{r4, r5, r6, lr}
	modbus_SlaveProcess();
	modbus_MasterProcess();

	// se no estamos esperando a resposta do SendCommand vamos analisar o prximo comando a ser enviado
	if (!waitResponse) {
    2486:	4c36      	ldr	r4, [pc, #216]	; (2560 <modbus_Process+0xdc>)
    #endif
}

static uint multimeterAccess = 1;
void modbus_Process(void) {
	modbus_SlaveProcess();
    2488:	f000 fea2 	bl	31d0 <modbus_SlaveProcess>
	modbus_MasterProcess();
    248c:	f000 fd86 	bl	2f9c <modbus_MasterProcess>

	// se no estamos esperando a resposta do SendCommand vamos analisar o prximo comando a ser enviado
	if (!waitResponse) {
    2490:	6823      	ldr	r3, [r4, #0]
    2492:	b97b      	cbnz	r3, 24b4 <modbus_Process+0x30>
		if (multimeterAccess >= control.nMultimetersGeren) multimeterAccess = 1; else multimeterAccess++;
    2494:	4b33      	ldr	r3, [pc, #204]	; (2564 <modbus_Process+0xe0>)
    2496:	4934      	ldr	r1, [pc, #208]	; (2568 <modbus_Process+0xe4>)
    2498:	681a      	ldr	r2, [r3, #0]
    249a:	68c9      	ldr	r1, [r1, #12]
    249c:	428a      	cmp	r2, r1
    249e:	d301      	bcc.n	24a4 <modbus_Process+0x20>
    24a0:	2201      	movs	r2, #1
    24a2:	e000      	b.n	24a6 <modbus_Process+0x22>
    24a4:	3201      	adds	r2, #1
    24a6:	601a      	str	r2, [r3, #0]
		modbus_SendCommand(multimeterAccess, cmdGET_MULTIMETER);
    24a8:	6818      	ldr	r0, [r3, #0]
    24aa:	2102      	movs	r1, #2
		control.multimeter[multimeterAccess-1].stsCom = 5; // sinaliza que a conexo fou feita com sucesso
		control.multimeter[multimeterAccess-1].sts =  regs[0] & 0x1f;
		control.multimeter[multimeterAccess-1].valueLSW = regs[1];
		control.multimeter[multimeterAccess-1].valueMSW = regs[2];
	}
}
    24ac:	e8bd 4070 	ldmia.w	sp!, {r4, r5, r6, lr}
	modbus_MasterProcess();

	// se no estamos esperando a resposta do SendCommand vamos analisar o prximo comando a ser enviado
	if (!waitResponse) {
		if (multimeterAccess >= control.nMultimetersGeren) multimeterAccess = 1; else multimeterAccess++;
		modbus_SendCommand(multimeterAccess, cmdGET_MULTIMETER);
    24b0:	f7ff bfce 	b.w	2450 <modbus_SendCommand>
		return;
	}

	int ret = modbus_MasterReadStatus();
    24b4:	f000 fd28 	bl	2f08 <modbus_MasterReadStatus>
	//  ERROR: Notificar  o erro e tomar procedimento cabveis
	//  OK para escrita: Nada, pois os valores dos registradores foram salvos no escravo com sucesso
	//	OK para Leitura: Capturar os valores dos registradores lidos do escravo

	// se ainda est ocupado no faz nada
	if (ret == errMODBUS_BUSY) return;
    24b8:	f110 0f86 	cmn.w	r0, #134	; 0x86
    24bc:	d04e      	beq.n	255c <modbus_Process+0xd8>
	waitResponse = pdFALSE;
    24be:	2200      	movs	r2, #0
    24c0:	4b2a      	ldr	r3, [pc, #168]	; (256c <modbus_Process+0xe8>)
	// se for algum erro
	if (ret < 0) {
    24c2:	4290      	cmp	r0, r2
	//  OK para escrita: Nada, pois os valores dos registradores foram salvos no escravo com sucesso
	//	OK para Leitura: Capturar os valores dos registradores lidos do escravo

	// se ainda est ocupado no faz nada
	if (ret == errMODBUS_BUSY) return;
	waitResponse = pdFALSE;
    24c4:	6022      	str	r2, [r4, #0]
	if (ret < 0) {
    	#if (LOG_MODBUS_MASTER == pdON)
    	plognp("Multimeter %d"CMD_TERMINATOR, multimeterAccess);
    	plognp("modbus err[%d] wait response "CMD_TERMINATOR, ret);
		#endif
		if (cmd == cmdGET_MULTIMETER) {
    24c6:	781b      	ldrb	r3, [r3, #0]

	// se ainda est ocupado no faz nada
	if (ret == errMODBUS_BUSY) return;
	waitResponse = pdFALSE;
	// se for algum erro
	if (ret < 0) {
    24c8:	da15      	bge.n	24f6 <modbus_Process+0x72>
    	#if (LOG_MODBUS_MASTER == pdON)
    	plognp("Multimeter %d"CMD_TERMINATOR, multimeterAccess);
    	plognp("modbus err[%d] wait response "CMD_TERMINATOR, ret);
		#endif
		if (cmd == cmdGET_MULTIMETER) {
    24ca:	2b02      	cmp	r3, #2
    24cc:	d146      	bne.n	255c <modbus_Process+0xd8>
			if (ret == errMODBUS_EXCEPTION)
    24ce:	3082      	adds	r0, #130	; 0x82
    24d0:	4b24      	ldr	r3, [pc, #144]	; (2564 <modbus_Process+0xe0>)
    24d2:	4c25      	ldr	r4, [pc, #148]	; (2568 <modbus_Process+0xe4>)
    24d4:	d108      	bne.n	24e8 <modbus_Process+0x64>
		 		control.multimeter[multimeterAccess-1].stsCom = modbus_MasterReadException();
    24d6:	681d      	ldr	r5, [r3, #0]
    24d8:	f000 fd1c 	bl	2f14 <modbus_MasterReadException>
    24dc:	3d01      	subs	r5, #1
    24de:	2314      	movs	r3, #20
    24e0:	fb03 4405 	mla	r4, r3, r5, r4
    24e4:	6120      	str	r0, [r4, #16]
    24e6:	bd70      	pop	{r4, r5, r6, pc}
					// modbusILLEGAL_FUNCTION: O multimetro recebeu uma funo que no foi implementada ou no foi habilitada.
					// modbusILLEGAL_DATA_ADDRESS: O multimetro precisou acessar um endereo inexistente.
					// modbusILLEGAL_DATA_VALUE: O valor contido no campo de dado no  permitido pelo multimetro. Isto indica uma falta de informaes na estrutura do campo de dados.
					// modbusSLAVE_DEVICE_FAILURE: Um irrecupervel erro ocorreu enquanto o multimetro estava tentando executar a ao solicitada.
			else control.multimeter[multimeterAccess-1].stsCom = 0; // sinaliza que no h comunicao com o multimetro
    24e8:	681b      	ldr	r3, [r3, #0]
    24ea:	2114      	movs	r1, #20
    24ec:	3b01      	subs	r3, #1
    24ee:	fb01 4403 	mla	r4, r1, r3, r4
    24f2:	6122      	str	r2, [r4, #16]
    24f4:	bd70      	pop	{r4, r5, r6, pc}
	#if (LOG_MODBUS_MASTER == pdON)
   	plognp("Response multimeter %d"CMD_TERMINATOR, multimeterAccess);
   	#endif

    // Comando para ler os registradores: modelo e verso firmware
    if (cmd == cmdGET_INFO) {
    24f6:	2b01      	cmp	r3, #1
    24f8:	d11c      	bne.n	2534 <modbus_Process+0xb0>
    	#if (LOG_MODBUS_MASTER == pdON)
    	plognp("Multimeter %d"CMD_TERMINATOR, multimeterAccess);
    	plognp("model %c%c%c%c"CMD_TERMINATOR, (regs[0] & 0xff), (regs[0] >> 8), (regs[1] & 0xff), (regs[1] >> 8));
    	plognp("firware %c.%c"CMD_TERMINATOR, (regs[2] & 0xff), (regs[2] >> 8));
    	#endif
    	control.multimeter[multimeterAccess-1].model[0] = (regs[0] & 0xff);
    24fa:	4b1a      	ldr	r3, [pc, #104]	; (2564 <modbus_Process+0xe0>)
    24fc:	4c1a      	ldr	r4, [pc, #104]	; (2568 <modbus_Process+0xe4>)
    24fe:	681b      	ldr	r3, [r3, #0]
    2500:	2514      	movs	r5, #20
    2502:	3b01      	subs	r3, #1
    2504:	fb05 4303 	mla	r3, r5, r3, r4
    2508:	4919      	ldr	r1, [pc, #100]	; (2570 <modbus_Process+0xec>)
    250a:	f103 0518 	add.w	r5, r3, #24
    250e:	8808      	ldrh	r0, [r1, #0]
    	control.multimeter[multimeterAccess-1].model[1] = (regs[0] >> 8);
    	control.multimeter[multimeterAccess-1].model[2] = (regs[1] & 0xff);
    2510:	884e      	ldrh	r6, [r1, #2]
    	#if (LOG_MODBUS_MASTER == pdON)
    	plognp("Multimeter %d"CMD_TERMINATOR, multimeterAccess);
    	plognp("model %c%c%c%c"CMD_TERMINATOR, (regs[0] & 0xff), (regs[0] >> 8), (regs[1] & 0xff), (regs[1] >> 8));
    	plognp("firware %c.%c"CMD_TERMINATOR, (regs[2] & 0xff), (regs[2] >> 8));
    	#endif
    	control.multimeter[multimeterAccess-1].model[0] = (regs[0] & 0xff);
    2512:	7698      	strb	r0, [r3, #26]
    	control.multimeter[multimeterAccess-1].model[1] = (regs[0] >> 8);
    	control.multimeter[multimeterAccess-1].model[2] = (regs[1] & 0xff);
    2514:	771e      	strb	r6, [r3, #28]
    	plognp("Multimeter %d"CMD_TERMINATOR, multimeterAccess);
    	plognp("model %c%c%c%c"CMD_TERMINATOR, (regs[0] & 0xff), (regs[0] >> 8), (regs[1] & 0xff), (regs[1] >> 8));
    	plognp("firware %c.%c"CMD_TERMINATOR, (regs[2] & 0xff), (regs[2] >> 8));
    	#endif
    	control.multimeter[multimeterAccess-1].model[0] = (regs[0] & 0xff);
    	control.multimeter[multimeterAccess-1].model[1] = (regs[0] >> 8);
    2516:	0a00      	lsrs	r0, r0, #8
    	control.multimeter[multimeterAccess-1].model[2] = (regs[1] & 0xff);
    	control.multimeter[multimeterAccess-1].model[3] = (regs[1] >> 8);
    2518:	0a36      	lsrs	r6, r6, #8
    	plognp("Multimeter %d"CMD_TERMINATOR, multimeterAccess);
    	plognp("model %c%c%c%c"CMD_TERMINATOR, (regs[0] & 0xff), (regs[0] >> 8), (regs[1] & 0xff), (regs[1] >> 8));
    	plognp("firware %c.%c"CMD_TERMINATOR, (regs[2] & 0xff), (regs[2] >> 8));
    	#endif
    	control.multimeter[multimeterAccess-1].model[0] = (regs[0] & 0xff);
    	control.multimeter[multimeterAccess-1].model[1] = (regs[0] >> 8);
    251a:	f103 0419 	add.w	r4, r3, #25
    251e:	76d8      	strb	r0, [r3, #27]
    	control.multimeter[multimeterAccess-1].model[2] = (regs[1] & 0xff);
    	control.multimeter[multimeterAccess-1].model[3] = (regs[1] >> 8);
    2520:	775e      	strb	r6, [r3, #29]
    	plognp("model %c%c%c%c"CMD_TERMINATOR, (regs[0] & 0xff), (regs[0] >> 8), (regs[1] & 0xff), (regs[1] >> 8));
    	plognp("firware %c.%c"CMD_TERMINATOR, (regs[2] & 0xff), (regs[2] >> 8));
    	#endif
    	control.multimeter[multimeterAccess-1].model[0] = (regs[0] & 0xff);
    	control.multimeter[multimeterAccess-1].model[1] = (regs[0] >> 8);
    	control.multimeter[multimeterAccess-1].model[2] = (regs[1] & 0xff);
    2522:	f103 001a 	add.w	r0, r3, #26
    	control.multimeter[multimeterAccess-1].model[3] = (regs[1] >> 8);
    	control.multimeter[multimeterAccess-1].model[4] = 0;
    2526:	779a      	strb	r2, [r3, #30]
    	control.multimeter[multimeterAccess-1].firmware[0] = (regs[2] & 0xff);
    2528:	888b      	ldrh	r3, [r1, #4]
    252a:	71eb      	strb	r3, [r5, #7]
    	control.multimeter[multimeterAccess-1].firmware[1] = (regs[2] >> 8);
    252c:	0a1b      	lsrs	r3, r3, #8
    252e:	71e3      	strb	r3, [r4, #7]
    	control.multimeter[multimeterAccess-1].firmware[2] = 0;
    2530:	71c2      	strb	r2, [r0, #7]
    2532:	bd70      	pop	{r4, r5, r6, pc}

	// Comando para ler o multimetro
    } else if (cmd == cmdGET_MULTIMETER) {
    2534:	2b02      	cmp	r3, #2
    2536:	d111      	bne.n	255c <modbus_Process+0xd8>
		control.multimeter[multimeterAccess-1].stsCom = 5; // sinaliza que a conexo fou feita com sucesso
    2538:	4b0a      	ldr	r3, [pc, #40]	; (2564 <modbus_Process+0xe0>)
    253a:	4a0b      	ldr	r2, [pc, #44]	; (2568 <modbus_Process+0xe4>)
    253c:	681b      	ldr	r3, [r3, #0]
    253e:	2114      	movs	r1, #20
    2540:	3b01      	subs	r3, #1
    2542:	fb01 2303 	mla	r3, r1, r3, r2
    2546:	2205      	movs	r2, #5
    2548:	611a      	str	r2, [r3, #16]
		control.multimeter[multimeterAccess-1].sts =  regs[0] & 0x1f;
    254a:	4a09      	ldr	r2, [pc, #36]	; (2570 <modbus_Process+0xec>)
    254c:	8810      	ldrh	r0, [r2, #0]
    254e:	f000 001f 	and.w	r0, r0, #31
    2552:	8298      	strh	r0, [r3, #20]
		control.multimeter[multimeterAccess-1].valueLSW = regs[1];
    2554:	8850      	ldrh	r0, [r2, #2]
		control.multimeter[multimeterAccess-1].valueMSW = regs[2];
    2556:	8892      	ldrh	r2, [r2, #4]

	// Comando para ler o multimetro
    } else if (cmd == cmdGET_MULTIMETER) {
		control.multimeter[multimeterAccess-1].stsCom = 5; // sinaliza que a conexo fou feita com sucesso
		control.multimeter[multimeterAccess-1].sts =  regs[0] & 0x1f;
		control.multimeter[multimeterAccess-1].valueLSW = regs[1];
    2558:	82d8      	strh	r0, [r3, #22]
		control.multimeter[multimeterAccess-1].valueMSW = regs[2];
    255a:	831a      	strh	r2, [r3, #24]
    255c:	bd70      	pop	{r4, r5, r6, pc}
    255e:	bf00      	nop
    2560:	100008d8 	.word	0x100008d8
    2564:	10000004 	.word	0x10000004
    2568:	10000010 	.word	0x10000010
    256c:	100008d4 	.word	0x100008d4
    2570:	100008dc 	.word	0x100008dc

Disassembly of section .text.prompt_STS:

00002574 <prompt_STS>:
	app_SetRelay(act);
	plognp("set relay %d = %s (act = 0x%x)"CMD_TERMINATOR, p1, (st == 0)?"off":"on");
	return pdPASS;
}

static int prompt_STS(int argc __attribute__ ((unused)), portCHAR **argv __attribute__ ((unused))) {
    2574:	b573      	push	{r0, r1, r4, r5, r6, lr}
	lprintf(CMD_TERMINATOR);
    2576:	4927      	ldr	r1, [pc, #156]	; (2614 <prompt_STS+0xa0>)
    2578:	2001      	movs	r0, #1
    257a:	f000 fba1 	bl	2cc0 <rprintf>
	lprintf(CMD_TERMINATOR);
    257e:	4925      	ldr	r1, [pc, #148]	; (2614 <prompt_STS+0xa0>)
    2580:	2001      	movs	r0, #1
    2582:	f000 fb9d 	bl	2cc0 <rprintf>
	lprintf(PROGAM_NAME);
    2586:	4924      	ldr	r1, [pc, #144]	; (2618 <prompt_STS+0xa4>)
    2588:	2001      	movs	r0, #1
    258a:	f000 fb99 	bl	2cc0 <rprintf>
	lprintf("ucLibc version "__VERSION CMD_TERMINATOR);
    258e:	4923      	ldr	r1, [pc, #140]	; (261c <prompt_STS+0xa8>)
    2590:	2001      	movs	r0, #1
    2592:	f000 fb95 	bl	2cc0 <rprintf>

	lprintf(CMD_TERMINATOR);
    2596:	491f      	ldr	r1, [pc, #124]	; (2614 <prompt_STS+0xa0>)
    2598:	2001      	movs	r0, #1
    259a:	f000 fb91 	bl	2cc0 <rprintf>
	lprintf("MODBUS"CMD_TERMINATOR);
	lprintf("   Baudrate SBC = %d"CMD_TERMINATOR, BAUDRATE_SBC);
	lprintf("   Baudrate Multimeter = %d"CMD_TERMINATOR, BAUDRATE_MULTIMETER);
	lprintf("   Slave ID = %d"CMD_TERMINATOR, control.modbusID);
    259e:	4e20      	ldr	r6, [pc, #128]	; (2620 <prompt_STS+0xac>)
	lprintf(CMD_TERMINATOR);
	lprintf(PROGAM_NAME);
	lprintf("ucLibc version "__VERSION CMD_TERMINATOR);

	lprintf(CMD_TERMINATOR);
	lprintf("MODBUS"CMD_TERMINATOR);
    25a0:	4920      	ldr	r1, [pc, #128]	; (2624 <prompt_STS+0xb0>)
    25a2:	2001      	movs	r0, #1
    25a4:	f000 fb8c 	bl	2cc0 <rprintf>
	lprintf("   Baudrate SBC = %d"CMD_TERMINATOR, BAUDRATE_SBC);
    25a8:	491f      	ldr	r1, [pc, #124]	; (2628 <prompt_STS+0xb4>)
    25aa:	f44f 4261 	mov.w	r2, #57600	; 0xe100
    25ae:	2001      	movs	r0, #1
    25b0:	f000 fb86 	bl	2cc0 <rprintf>
	lprintf("   Baudrate Multimeter = %d"CMD_TERMINATOR, BAUDRATE_MULTIMETER);
	lprintf("   Slave ID = %d"CMD_TERMINATOR, control.modbusID);
    25b4:	4634      	mov	r4, r6
	lprintf("ucLibc version "__VERSION CMD_TERMINATOR);

	lprintf(CMD_TERMINATOR);
	lprintf("MODBUS"CMD_TERMINATOR);
	lprintf("   Baudrate SBC = %d"CMD_TERMINATOR, BAUDRATE_SBC);
	lprintf("   Baudrate Multimeter = %d"CMD_TERMINATOR, BAUDRATE_MULTIMETER);
    25b6:	491d      	ldr	r1, [pc, #116]	; (262c <prompt_STS+0xb8>)
    25b8:	f44f 4261 	mov.w	r2, #57600	; 0xe100
    25bc:	2001      	movs	r0, #1
    25be:	f000 fb7f 	bl	2cc0 <rprintf>
	lprintf("   Slave ID = %d"CMD_TERMINATOR, control.modbusID);
    25c2:	f854 2b10 	ldr.w	r2, [r4], #16
    25c6:	491a      	ldr	r1, [pc, #104]	; (2630 <prompt_STS+0xbc>)
    25c8:	2001      	movs	r0, #1
    25ca:	f000 fb79 	bl	2cc0 <rprintf>

	lprintf(CMD_TERMINATOR);
    25ce:	4911      	ldr	r1, [pc, #68]	; (2614 <prompt_STS+0xa0>)
    25d0:	2001      	movs	r0, #1
    25d2:	f000 fb75 	bl	2cc0 <rprintf>
	lprintf("MULTIMETERS"CMD_TERMINATOR);
    25d6:	2001      	movs	r0, #1
    25d8:	4916      	ldr	r1, [pc, #88]	; (2634 <prompt_STS+0xc0>)
    25da:	f000 fb71 	bl	2cc0 <rprintf>
	uint x; for(x=0;x<control.nMultimetersGeren;x++) {
    25de:	2500      	movs	r5, #0
    25e0:	e011      	b.n	2606 <prompt_STS+0x92>
		lprintf("   MULTIMETER[%d]: stsCom=0x%x sts=0x%x  value=%d"CMD_TERMINATOR,
    25e2:	f834 3c10 	ldrh.w	r3, [r4, #-16]
    25e6:	3501      	adds	r5, #1
    25e8:	9300      	str	r3, [sp, #0]
    25ea:	f834 2c0c 	ldrh.w	r2, [r4, #-12]
    25ee:	f834 3c0e 	ldrh.w	r3, [r4, #-14]
    25f2:	2001      	movs	r0, #1
    25f4:	ea43 4302 	orr.w	r3, r3, r2, lsl #16
    25f8:	9301      	str	r3, [sp, #4]
    25fa:	490f      	ldr	r1, [pc, #60]	; (2638 <prompt_STS+0xc4>)
    25fc:	462a      	mov	r2, r5
    25fe:	f854 3c14 	ldr.w	r3, [r4, #-20]
    2602:	f000 fb5d 	bl	2cc0 <rprintf>
	lprintf("   Baudrate Multimeter = %d"CMD_TERMINATOR, BAUDRATE_MULTIMETER);
	lprintf("   Slave ID = %d"CMD_TERMINATOR, control.modbusID);

	lprintf(CMD_TERMINATOR);
	lprintf("MULTIMETERS"CMD_TERMINATOR);
	uint x; for(x=0;x<control.nMultimetersGeren;x++) {
    2606:	68f3      	ldr	r3, [r6, #12]
    2608:	3414      	adds	r4, #20
    260a:	429d      	cmp	r5, r3
    260c:	d3e9      	bcc.n	25e2 <prompt_STS+0x6e>
			control.multimeter[x].valueMSW << 16 | control.multimeter[x].valueLSW
		);
	}

	return pdPASS;
}
    260e:	2001      	movs	r0, #1
    2610:	bd7c      	pop	{r2, r3, r4, r5, r6, pc}
    2612:	bf00      	nop
    2614:	00003dd1 	.word	0x00003dd1
    2618:	00003b8c 	.word	0x00003b8c
    261c:	00003b1e 	.word	0x00003b1e
    2620:	10000010 	.word	0x10000010
    2624:	00003be6 	.word	0x00003be6
    2628:	00003bee 	.word	0x00003bee
    262c:	00003c04 	.word	0x00003c04
    2630:	00003c21 	.word	0x00003c21
    2634:	00003c33 	.word	0x00003c33
    2638:	00003c40 	.word	0x00003c40

Disassembly of section .text.prompt_Relay:

0000263c <prompt_Relay>:

	return result_prompt;
}


static int prompt_Relay (int argc __attribute__ ((unused)), portCHAR **argv) {
    263c:	b573      	push	{r0, r1, r4, r5, r6, lr}
	long p1;
	uint st;
	uint act = control.relays;
    263e:	4b18      	ldr	r3, [pc, #96]	; (26a0 <prompt_Relay+0x64>)

	return result_prompt;
}


static int prompt_Relay (int argc __attribute__ ((unused)), portCHAR **argv) {
    2640:	460e      	mov	r6, r1
	long p1;
	uint st;
	uint act = control.relays;

	if (!xatoi(&argv[0], &p1))	{ return pdFAIL; }
    2642:	4608      	mov	r0, r1
    2644:	a901      	add	r1, sp, #4


static int prompt_Relay (int argc __attribute__ ((unused)), portCHAR **argv) {
	long p1;
	uint st;
	uint act = control.relays;
    2646:	689d      	ldr	r5, [r3, #8]

	if (!xatoi(&argv[0], &p1))	{ return pdFAIL; }
    2648:	f000 fb9e 	bl	2d88 <xatoi>
    264c:	b330      	cbz	r0, 269c <prompt_Relay+0x60>
	if ( (p1<=0) || (p1>8) ) 	{ return pdFAIL; }
    264e:	9c01      	ldr	r4, [sp, #4]
    2650:	3c01      	subs	r4, #1
    2652:	2c07      	cmp	r4, #7
    2654:	d814      	bhi.n	2680 <prompt_Relay+0x44>

	if (strcmp(argv[1], "on")) st = 0; else st = 1;
    2656:	6870      	ldr	r0, [r6, #4]
    2658:	4912      	ldr	r1, [pc, #72]	; (26a4 <prompt_Relay+0x68>)
    265a:	f7fe fb15 	bl	c88 <strcmp>
    265e:	2301      	movs	r3, #1
    2660:	b980      	cbnz	r0, 2684 <prompt_Relay+0x48>
    2662:	e015      	b.n	2690 <prompt_Relay+0x54>

	if (st == 0) act &= ~(1<<(p1-1)); else act |= (1<<(p1-1));
	app_SetRelay(act);
    2664:	f7ff fd42 	bl	20ec <app_SetRelay>
	plognp("set relay %d = %s (act = 0x%x)"CMD_TERMINATOR, p1, (st == 0)?"off":"on");
    2668:	4c0e      	ldr	r4, [pc, #56]	; (26a4 <prompt_Relay+0x68>)
    266a:	4b0f      	ldr	r3, [pc, #60]	; (26a8 <prompt_Relay+0x6c>)
    266c:	2002      	movs	r0, #2
    266e:	490f      	ldr	r1, [pc, #60]	; (26ac <prompt_Relay+0x70>)
    2670:	9a01      	ldr	r2, [sp, #4]
    2672:	2e00      	cmp	r6, #0
    2674:	bf18      	it	ne
    2676:	4623      	movne	r3, r4
    2678:	f000 fb22 	bl	2cc0 <rprintf>
	return pdPASS;
    267c:	2001      	movs	r0, #1
    267e:	e00d      	b.n	269c <prompt_Relay+0x60>
static int prompt_Relay (int argc __attribute__ ((unused)), portCHAR **argv) {
	long p1;
	uint st;
	uint act = control.relays;

	if (!xatoi(&argv[0], &p1))	{ return pdFAIL; }
    2680:	2000      	movs	r0, #0
    2682:	e00b      	b.n	269c <prompt_Relay+0x60>
	if ( (p1<=0) || (p1>8) ) 	{ return pdFAIL; }

	if (strcmp(argv[1], "on")) st = 0; else st = 1;

	if (st == 0) act &= ~(1<<(p1-1)); else act |= (1<<(p1-1));
    2684:	fa03 f404 	lsl.w	r4, r3, r4
	uint act = control.relays;

	if (!xatoi(&argv[0], &p1))	{ return pdFAIL; }
	if ( (p1<=0) || (p1>8) ) 	{ return pdFAIL; }

	if (strcmp(argv[1], "on")) st = 0; else st = 1;
    2688:	2600      	movs	r6, #0

	if (st == 0) act &= ~(1<<(p1-1)); else act |= (1<<(p1-1));
    268a:	ea25 0004 	bic.w	r0, r5, r4
    268e:	e7e9      	b.n	2664 <prompt_Relay+0x28>
    2690:	fa03 f404 	lsl.w	r4, r3, r4
	uint act = control.relays;

	if (!xatoi(&argv[0], &p1))	{ return pdFAIL; }
	if ( (p1<=0) || (p1>8) ) 	{ return pdFAIL; }

	if (strcmp(argv[1], "on")) st = 0; else st = 1;
    2694:	461e      	mov	r6, r3

	if (st == 0) act &= ~(1<<(p1-1)); else act |= (1<<(p1-1));
    2696:	ea44 0005 	orr.w	r0, r4, r5
    269a:	e7e3      	b.n	2664 <prompt_Relay+0x28>
	app_SetRelay(act);
	plognp("set relay %d = %s (act = 0x%x)"CMD_TERMINATOR, p1, (st == 0)?"off":"on");
	return pdPASS;
}
    269c:	bd7c      	pop	{r2, r3, r4, r5, r6, pc}
    269e:	bf00      	nop
    26a0:	10000010 	.word	0x10000010
    26a4:	000039ac 	.word	0x000039ac
    26a8:	00003d05 	.word	0x00003d05
    26ac:	00003c73 	.word	0x00003c73

Disassembly of section .text.prompt_Process:

000026b0 <prompt_Process>:
	{ NULL, 0,  0, CMD_TYPE_FUNCTION,  	{ NULL },
			NULL,
			NULL },
};

void prompt_Process(void) {
    26b0:	b570      	push	{r4, r5, r6, lr}
static portCHAR *argv_prompt [CLI_N_ARGS];
static int argc_prompt;

static int prompt_ProcessCommand(void) {
	// CAPTURA COMANDOS DO TERMINAL. SE TECLOU ENTER A FUNO RETORNA COM A QUANTIDADE DE CHAR DO COMANDO
	result_prompt = cli_GetLine (buffer_prompt, sizeof (buffer_prompt), PROMPT); // Chamo o console para entrada de comandos
    26b2:	481b      	ldr	r0, [pc, #108]	; (2720 <prompt_Process+0x70>)
    26b4:	2128      	movs	r1, #40	; 0x28
    26b6:	4a1b      	ldr	r2, [pc, #108]	; (2724 <prompt_Process+0x74>)
    26b8:	f000 fe48 	bl	334c <cli_GetLine>
    26bc:	4c1a      	ldr	r4, [pc, #104]	; (2728 <prompt_Process+0x78>)
    26be:	6020      	str	r0, [r4, #0]

	// CHECA FOI ENTRADO COM O COMANDO
	if (result_prompt) {	// checa se h entrada de comandos
    26c0:	b1a0      	cbz	r0, 26ec <prompt_Process+0x3c>
   		if (cli_ArgsParse ((char *) buffer_prompt, argv_prompt, sizeof (argv_prompt), &argc_prompt) == errCLI_EXED_ARGS) // Captura os endereos iniciais de cada argumento, contidos no comando, e grava nas posies do argv
    26c2:	4d1a      	ldr	r5, [pc, #104]	; (272c <prompt_Process+0x7c>)
    26c4:	4e1a      	ldr	r6, [pc, #104]	; (2730 <prompt_Process+0x80>)
    26c6:	2228      	movs	r2, #40	; 0x28
    26c8:	4815      	ldr	r0, [pc, #84]	; (2720 <prompt_Process+0x70>)
    26ca:	4629      	mov	r1, r5
    26cc:	4633      	mov	r3, r6
    26ce:	f000 ff05 	bl	34dc <cli_ArgsParse>
    26d2:	f110 0f3c 	cmn.w	r0, #60	; 0x3c
    26d6:	d100      	bne.n	26da <prompt_Process+0x2a>
    26d8:	e006      	b.n	26e8 <prompt_Process+0x38>
   			result_prompt = errCLI_EXED_ARGS;
   		else if (argv_prompt[0])
    26da:	682b      	ldr	r3, [r5, #0]
    26dc:	b143      	cbz	r3, 26f0 <prompt_Process+0x40>
   			result_prompt = cli_ArgsDispatch(cli_list, argc_prompt, &argv_prompt[0]);							// Executa a funo referente ao comando digitado
    26de:	4815      	ldr	r0, [pc, #84]	; (2734 <prompt_Process+0x84>)
    26e0:	6831      	ldr	r1, [r6, #0]
    26e2:	462a      	mov	r2, r5
    26e4:	f000 ff70 	bl	35c8 <cli_ArgsDispatch>
    26e8:	6020      	str	r0, [r4, #0]
    26ea:	e001      	b.n	26f0 <prompt_Process+0x40>
  	} else result_prompt = pdPASS;
    26ec:	2301      	movs	r3, #1
    26ee:	6023      	str	r3, [r4, #0]

	return result_prompt;
    26f0:	4b0d      	ldr	r3, [pc, #52]	; (2728 <prompt_Process+0x78>)
			NULL },
};

void prompt_Process(void) {
	static int resuslt;
	resuslt = prompt_ProcessCommand();
    26f2:	4a11      	ldr	r2, [pc, #68]	; (2738 <prompt_Process+0x88>)
   			result_prompt = errCLI_EXED_ARGS;
   		else if (argv_prompt[0])
   			result_prompt = cli_ArgsDispatch(cli_list, argc_prompt, &argv_prompt[0]);							// Executa a funo referente ao comando digitado
  	} else result_prompt = pdPASS;

	return result_prompt;
    26f4:	681b      	ldr	r3, [r3, #0]
};

void prompt_Process(void) {
	static int resuslt;
	resuslt = prompt_ProcessCommand();
	switch (resuslt) {
    26f6:	f113 0f3c 	cmn.w	r3, #60	; 0x3c
			NULL },
};

void prompt_Process(void) {
	static int resuslt;
	resuslt = prompt_ProcessCommand();
    26fa:	6013      	str	r3, [r2, #0]
	switch (resuslt) {
    26fc:	d003      	beq.n	2706 <prompt_Process+0x56>
    26fe:	b143      	cbz	r3, 2712 <prompt_Process+0x62>
    2700:	333f      	adds	r3, #63	; 0x3f
    2702:	d10c      	bne.n	271e <prompt_Process+0x6e>
    2704:	e002      	b.n	270c <prompt_Process+0x5c>
	case errCLI_EXED_ARGS:
		lprintf("System error"CMD_TERMINATOR);
    2706:	2001      	movs	r0, #1
    2708:	490c      	ldr	r1, [pc, #48]	; (273c <prompt_Process+0x8c>)
    270a:	e004      	b.n	2716 <prompt_Process+0x66>
		break;
	case errCLI_CMD_NOT_FOUND:
		lprintf("Unknown command"CMD_TERMINATOR);
    270c:	2001      	movs	r0, #1
    270e:	490c      	ldr	r1, [pc, #48]	; (2740 <prompt_Process+0x90>)
    2710:	e001      	b.n	2716 <prompt_Process+0x66>
    	break;
    case pdFAIL:
    	lprintf("Error in executing the command"CMD_TERMINATOR);
    2712:	490c      	ldr	r1, [pc, #48]	; (2744 <prompt_Process+0x94>)
    2714:	2001      	movs	r0, #1
    	break;
    }
}
    2716:	e8bd 4070 	ldmia.w	sp!, {r4, r5, r6, lr}
		break;
	case errCLI_CMD_NOT_FOUND:
		lprintf("Unknown command"CMD_TERMINATOR);
    	break;
    case pdFAIL:
    	lprintf("Error in executing the command"CMD_TERMINATOR);
    271a:	f000 bad1 	b.w	2cc0 <rprintf>
    271e:	bd70      	pop	{r4, r5, r6, pc}
    2720:	100009fc 	.word	0x100009fc
    2724:	00003c93 	.word	0x00003c93
    2728:	100009d0 	.word	0x100009d0
    272c:	100009d4 	.word	0x100009d4
    2730:	100009cc 	.word	0x100009cc
    2734:	00003b3c 	.word	0x00003b3c
    2738:	10000a24 	.word	0x10000a24
    273c:	00003c97 	.word	0x00003c97
    2740:	00003ca5 	.word	0x00003ca5
    2744:	00003cb6 	.word	0x00003cb6

Disassembly of section .text.print_putchar:

00002748 <print_putchar>:
// IMPRESSO DE CARACTERES
// #######################################################################################################################

//  Esta funo direciona a impresso do caractere para o dipositivo de saida ou armazena em buffer de formatao de string
static void print_putchar(pPrint output, u8 c) {
	if (output->buf!=NULL) { 				// Checa se h buffer para fazer formatao de string
    2748:	6802      	ldr	r2, [r0, #0]
// #######################################################################################################################
// IMPRESSO DE CARACTERES
// #######################################################################################################################

//  Esta funo direciona a impresso do caractere para o dipositivo de saida ou armazena em buffer de formatao de string
static void print_putchar(pPrint output, u8 c) {
    274a:	b538      	push	{r3, r4, r5, lr}
	if (output->buf!=NULL) { 				// Checa se h buffer para fazer formatao de string
    274c:	b122      	cbz	r2, 2758 <print_putchar+0x10>
		output->buf[output->count++] = c;
    274e:	6843      	ldr	r3, [r0, #4]
    2750:	54d1      	strb	r1, [r2, r3]
    2752:	3301      	adds	r3, #1
    2754:	6043      	str	r3, [r0, #4]
		return;		// se  somente para fazer formatao de string no vamos fazer impresso em dispositivo
    2756:	bd38      	pop	{r3, r4, r5, pc}
	#if defined(LINUX)
	stdio_putc(c);
	#else
	static int (*putcharfunc)(n16 c);
	
	switch(output->device) {
    2758:	7b02      	ldrb	r2, [r0, #12]
    275a:	4b10      	ldr	r3, [pc, #64]	; (279c <print_putchar+0x54>)
    275c:	3a01      	subs	r2, #1
    275e:	2a06      	cmp	r2, #6
    2760:	d814      	bhi.n	278c <print_putchar+0x44>
    2762:	e8df f002 	tbb	[pc, r2]
    2766:	0604      	.short	0x0604
    2768:	0e0c0a08 	.word	0x0e0c0a08
    276c:	10          	.byte	0x10
    276d:	00          	.byte	0x00
		case STDIO_LPRINTF:	putcharfunc = stdio_putc; break;
    276e:	4a0c      	ldr	r2, [pc, #48]	; (27a0 <print_putchar+0x58>)
    2770:	e00a      	b.n	2788 <print_putchar+0x40>
		case STDIO_DEBUG:	putcharfunc = debug_putc; break;
    2772:	4a0c      	ldr	r2, [pc, #48]	; (27a4 <print_putchar+0x5c>)
    2774:	e008      	b.n	2788 <print_putchar+0x40>
		case STDIO_ERROR:	putcharfunc = err_putc; break;
    2776:	4a0c      	ldr	r2, [pc, #48]	; (27a8 <print_putchar+0x60>)
    2778:	e006      	b.n	2788 <print_putchar+0x40>
		case STDIO_DEV1: 	putcharfunc = dev1_putc; break;
    277a:	4a0c      	ldr	r2, [pc, #48]	; (27ac <print_putchar+0x64>)
    277c:	e004      	b.n	2788 <print_putchar+0x40>
   		case STDIO_DEV2: 	putcharfunc = dev2_putc; break;
    277e:	4a0c      	ldr	r2, [pc, #48]	; (27b0 <print_putchar+0x68>)
    2780:	e002      	b.n	2788 <print_putchar+0x40>
   		case STDIO_DEV3: 	putcharfunc = dev3_putc; break;
    2782:	4a0c      	ldr	r2, [pc, #48]	; (27b4 <print_putchar+0x6c>)
    2784:	e000      	b.n	2788 <print_putchar+0x40>
   		case STDIO_DEV4: 	putcharfunc = dev4_putc; break;
    2786:	4a0c      	ldr	r2, [pc, #48]	; (27b8 <print_putchar+0x70>)
    2788:	6812      	ldr	r2, [r2, #0]
    278a:	601a      	str	r2, [r3, #0]
  	}

	// seno joga na porta de saida
	// Espera at que consiga incluir o caractere no buffer de TX
	while (putcharfunc(c) < 0) continue;
    278c:	4d03      	ldr	r5, [pc, #12]	; (279c <print_putchar+0x54>)
    278e:	b20c      	sxth	r4, r1
    2790:	682b      	ldr	r3, [r5, #0]
    2792:	4620      	mov	r0, r4
    2794:	4798      	blx	r3
    2796:	2800      	cmp	r0, #0
    2798:	dbfa      	blt.n	2790 <print_putchar+0x48>
    279a:	bd38      	pop	{r3, r4, r5, pc}
    279c:	10000a34 	.word	0x10000a34
    27a0:	10000a2c 	.word	0x10000a2c
    27a4:	10000a44 	.word	0x10000a44
    27a8:	10000a48 	.word	0x10000a48
    27ac:	10000a28 	.word	0x10000a28
    27b0:	10000a3c 	.word	0x10000a3c
    27b4:	10000a38 	.word	0x10000a38
    27b8:	10000a30 	.word	0x10000a30

Disassembly of section .text.print_fill:

000027bc <print_fill>:
// #######################################################################################################################

//completa a impressao com os caracteres desejados
//n=quantos caracteres ja serao impressos, o que faltar
//a rotina preenche
static void print_fill(pPrint output, int n) {
    27bc:	b538      	push	{r3, r4, r5, lr}
	n = output->prefix - n;
    27be:	7a04      	ldrb	r4, [r0, #8]
// #######################################################################################################################

//completa a impressao com os caracteres desejados
//n=quantos caracteres ja serao impressos, o que faltar
//a rotina preenche
static void print_fill(pPrint output, int n) {
    27c0:	4605      	mov	r5, r0
	n = output->prefix - n;
    27c2:	1a64      	subs	r4, r4, r1
	while (n-->0) print_putchar(output, output->fill);
    27c4:	e004      	b.n	27d0 <print_fill+0x14>
    27c6:	4628      	mov	r0, r5
    27c8:	7a69      	ldrb	r1, [r5, #9]
    27ca:	f7ff ffbd 	bl	2748 <print_putchar>
    27ce:	3c01      	subs	r4, #1
    27d0:	2c00      	cmp	r4, #0
    27d2:	dcf8      	bgt.n	27c6 <print_fill+0xa>
}
    27d4:	bd38      	pop	{r3, r4, r5, pc}

Disassembly of section .text.print_int:

000027d6 <print_int>:
	while (s[d])
		print_putchar(output, s[d++]);
	print_fill(output, d);
}

static void print_int(pPrint output, int x) {
    27d6:	b570      	push	{r4, r5, r6, lr}
	int d,sig;
	string digits;

	if (x<0) { sig = 1; x = -x; } else sig = 0;
    27d8:	1e0b      	subs	r3, r1, #0
	while (s[d])
		print_putchar(output, s[d++]);
	print_fill(output, d);
}

static void print_int(pPrint output, int x) {
    27da:	b090      	sub	sp, #64	; 0x40
    27dc:	4605      	mov	r5, r0
	int d,sig;
	string digits;

	if (x<0) { sig = 1; x = -x; } else sig = 0;
    27de:	da02      	bge.n	27e6 <print_int+0x10>
    27e0:	425b      	negs	r3, r3
    27e2:	2101      	movs	r1, #1
    27e4:	e000      	b.n	27e8 <print_int+0x12>
    27e6:	2100      	movs	r1, #0
	d = 0;
    27e8:	2200      	movs	r2, #0
	do	{
		digits[d++] = '0' + x%10;
    27ea:	260a      	movs	r6, #10
    27ec:	e000      	b.n	27f0 <print_int+0x1a>
    27ee:	4622      	mov	r2, r4
    27f0:	fb93 f0f6 	sdiv	r0, r3, r6
    27f4:	fb06 3310 	mls	r3, r6, r0, r3
    27f8:	3330      	adds	r3, #48	; 0x30
    27fa:	f80d 3002 	strb.w	r3, [sp, r2]
    27fe:	1c54      	adds	r4, r2, #1
		x = x/10;
	}while (x);
    2800:	4603      	mov	r3, r0
    2802:	2800      	cmp	r0, #0
    2804:	d1f3      	bne.n	27ee <print_int+0x18>
	if (sig) digits[d++] = '-';
    2806:	b129      	cbz	r1, 2814 <print_int+0x3e>
    2808:	ab10      	add	r3, sp, #64	; 0x40
    280a:	191c      	adds	r4, r3, r4
    280c:	232d      	movs	r3, #45	; 0x2d
    280e:	f804 3c40 	strb.w	r3, [r4, #-64]
    2812:	1c94      	adds	r4, r2, #2

	print_fill(output, d);
    2814:	4628      	mov	r0, r5
    2816:	4621      	mov	r1, r4
    2818:	f7ff ffd0 	bl	27bc <print_fill>
    281c:	e004      	b.n	2828 <print_int+0x52>
	while (d--) print_putchar(output, digits[d]);
    281e:	4628      	mov	r0, r5
    2820:	f81d 1004 	ldrb.w	r1, [sp, r4]
    2824:	f7ff ff90 	bl	2748 <print_putchar>
    2828:	f114 34ff 	adds.w	r4, r4, #4294967295
    282c:	d2f7      	bcs.n	281e <print_int+0x48>
}
    282e:	b010      	add	sp, #64	; 0x40
    2830:	bd70      	pop	{r4, r5, r6, pc}

Disassembly of section .text.print_long:

00002832 <print_long>:

static void print_long(pPrint output, long x) {
    2832:	b570      	push	{r4, r5, r6, lr}
	int d; //digitos
	string digits;

	if (x<0) { print_putchar(output,'-'); x = -x; }
    2834:	1e0c      	subs	r4, r1, #0

	print_fill(output, d);
	while (d--) print_putchar(output, digits[d]);
}

static void print_long(pPrint output, long x) {
    2836:	b090      	sub	sp, #64	; 0x40
    2838:	4606      	mov	r6, r0
	int d; //digitos
	string digits;

	if (x<0) { print_putchar(output,'-'); x = -x; }
    283a:	da03      	bge.n	2844 <print_long+0x12>
    283c:	212d      	movs	r1, #45	; 0x2d
    283e:	f7ff ff83 	bl	2748 <print_putchar>
    2842:	4264      	negs	r4, r4

	print_fill(output, d);
	while (d--) print_putchar(output, digits[d]);
}

static void print_long(pPrint output, long x) {
    2844:	2500      	movs	r5, #0
	string digits;

	if (x<0) { print_putchar(output,'-'); x = -x; }
	d = 0;
	do	{
		digits[d++] = '0' + x%10;
    2846:	220a      	movs	r2, #10
    2848:	fb94 f3f2 	sdiv	r3, r4, r2
    284c:	fb02 4413 	mls	r4, r2, r3, r4
    2850:	3430      	adds	r4, #48	; 0x30
    2852:	f80d 4005 	strb.w	r4, [sp, r5]
    2856:	3501      	adds	r5, #1
		x = x/10;
	}while (x);
    2858:	461c      	mov	r4, r3
    285a:	2b00      	cmp	r3, #0
    285c:	d1f4      	bne.n	2848 <print_long+0x16>

	print_fill(output, d);
    285e:	4630      	mov	r0, r6
    2860:	4629      	mov	r1, r5
    2862:	f7ff ffab 	bl	27bc <print_fill>
    2866:	e004      	b.n	2872 <print_long+0x40>
	while (d--) print_putchar(output, digits[d]);
    2868:	4630      	mov	r0, r6
    286a:	f81d 1005 	ldrb.w	r1, [sp, r5]
    286e:	f7ff ff6b 	bl	2748 <print_putchar>
    2872:	f115 35ff 	adds.w	r5, r5, #4294967295
    2876:	d2f7      	bcs.n	2868 <print_long+0x36>
}
    2878:	b010      	add	sp, #64	; 0x40
    287a:	bd70      	pop	{r4, r5, r6, pc}

Disassembly of section .text.print_float:

0000287c <print_float>:
	print_int(output, s);
}
#endif

#if ( STDIO_USE_FLOAT == pdON )
static void print_float(pPrint output, double x) {
    287c:	e92d 41f0 	stmdb	sp!, {r4, r5, r6, r7, r8, lr}
	if (x<0) { print_putchar(output, '-'); x = -x; }
    2880:	4619      	mov	r1, r3
	print_int(output, s);
}
#endif

#if ( STDIO_USE_FLOAT == pdON )
static void print_float(pPrint output, double x) {
    2882:	4606      	mov	r6, r0
    2884:	4690      	mov	r8, r2
    2886:	461f      	mov	r7, r3
	if (x<0) { print_putchar(output, '-'); x = -x; }
    2888:	4610      	mov	r0, r2
    288a:	2300      	movs	r3, #0
    288c:	2200      	movs	r2, #0
    288e:	f7fe f95f 	bl	b50 <__aeabi_dcmplt>
    2892:	b128      	cbz	r0, 28a0 <print_float+0x24>
    2894:	4630      	mov	r0, r6
    2896:	212d      	movs	r1, #45	; 0x2d
    2898:	f7ff ff56 	bl	2748 <print_putchar>
    289c:	f107 4700 	add.w	r7, r7, #2147483648	; 0x80000000
	//parte inteira
	print_long(output, (long)x);
    28a0:	4639      	mov	r1, r7
    28a2:	4640      	mov	r0, r8
    28a4:	f7fe f97c 	bl	ba0 <__aeabi_d2iz>
    28a8:	4604      	mov	r4, r0
    28aa:	4621      	mov	r1, r4
    28ac:	4630      	mov	r0, r6
    28ae:	f7ff ffc0 	bl	2832 <print_long>
	if (output->precision<=0) return;
    28b2:	7ab3      	ldrb	r3, [r6, #10]
    28b4:	2b00      	cmp	r3, #0
    28b6:	d035      	beq.n	2924 <print_float+0xa8>
	//parte fracionaria
	print_putchar(output, '.');
    28b8:	4630      	mov	r0, r6
    28ba:	212e      	movs	r1, #46	; 0x2e
    28bc:	f7ff ff44 	bl	2748 <print_putchar>
	output->prefix = 0;
    28c0:	2300      	movs	r3, #0
    28c2:	7233      	strb	r3, [r6, #8]
	x = x - (int)(x);
    28c4:	4620      	mov	r0, r4
    28c6:	f7fd fe6b 	bl	5a0 <__aeabi_i2d>
    28ca:	4602      	mov	r2, r0
    28cc:	460b      	mov	r3, r1
    28ce:	4640      	mov	r0, r8
    28d0:	4639      	mov	r1, r7
    28d2:	f7fd fd17 	bl	304 <__aeabi_dsub>
    28d6:	4604      	mov	r4, r0
    28d8:	460d      	mov	r5, r1
	while (output->precision-->0) {
    28da:	e00d      	b.n	28f8 <print_float+0x7c>
		x = x*10.0;
    28dc:	4b12      	ldr	r3, [pc, #72]	; (2928 <print_float+0xac>)
    28de:	f7fd fec5 	bl	66c <__aeabi_dmul>
		if (x<1.0) print_putchar(output, '0');
    28e2:	2200      	movs	r2, #0
    28e4:	4b11      	ldr	r3, [pc, #68]	; (292c <print_float+0xb0>)
	//parte fracionaria
	print_putchar(output, '.');
	output->prefix = 0;
	x = x - (int)(x);
	while (output->precision-->0) {
		x = x*10.0;
    28e6:	4604      	mov	r4, r0
    28e8:	460d      	mov	r5, r1
		if (x<1.0) print_putchar(output, '0');
    28ea:	f7fe f931 	bl	b50 <__aeabi_dcmplt>
    28ee:	b118      	cbz	r0, 28f8 <print_float+0x7c>
    28f0:	4630      	mov	r0, r6
    28f2:	2130      	movs	r1, #48	; 0x30
    28f4:	f7ff ff28 	bl	2748 <print_putchar>
	if (output->precision<=0) return;
	//parte fracionaria
	print_putchar(output, '.');
	output->prefix = 0;
	x = x - (int)(x);
	while (output->precision-->0) {
    28f8:	7ab3      	ldrb	r3, [r6, #10]
		x = x*10.0;
    28fa:	4620      	mov	r0, r4
	if (output->precision<=0) return;
	//parte fracionaria
	print_putchar(output, '.');
	output->prefix = 0;
	x = x - (int)(x);
	while (output->precision-->0) {
    28fc:	1e5a      	subs	r2, r3, #1
    28fe:	72b2      	strb	r2, [r6, #10]
		x = x*10.0;
    2900:	4629      	mov	r1, r5
    2902:	2200      	movs	r2, #0
	if (output->precision<=0) return;
	//parte fracionaria
	print_putchar(output, '.');
	output->prefix = 0;
	x = x - (int)(x);
	while (output->precision-->0) {
    2904:	2b00      	cmp	r3, #0
    2906:	d1e9      	bne.n	28dc <print_float+0x60>
		x = x*10.0;
		if (x<1.0) print_putchar(output, '0');
	}
	if (x>1) print_long(output, (long)x);
    2908:	4b08      	ldr	r3, [pc, #32]	; (292c <print_float+0xb0>)
    290a:	f7fe f93f 	bl	b8c <__aeabi_dcmpgt>
    290e:	b148      	cbz	r0, 2924 <print_float+0xa8>
    2910:	4629      	mov	r1, r5
    2912:	4620      	mov	r0, r4
    2914:	f7fe f944 	bl	ba0 <__aeabi_d2iz>
    2918:	4601      	mov	r1, r0
    291a:	4630      	mov	r0, r6
}
    291c:	e8bd 41f0 	ldmia.w	sp!, {r4, r5, r6, r7, r8, lr}
	x = x - (int)(x);
	while (output->precision-->0) {
		x = x*10.0;
		if (x<1.0) print_putchar(output, '0');
	}
	if (x>1) print_long(output, (long)x);
    2920:	f7ff bf87 	b.w	2832 <print_long>
    2924:	e8bd 81f0 	ldmia.w	sp!, {r4, r5, r6, r7, r8, pc}
    2928:	40240000 	.word	0x40240000
    292c:	3ff00000 	.word	0x3ff00000

Disassembly of section .text.doprint:

00002930 <doprint>:
	print_putchar(output, 'E');
	print_int(output, exp);
}
#endif

static void doprint(pPrint output, cpchar fmt, va_list args) {
    2930:	e92d 4ff0 	stmdb	sp!, {r4, r5, r6, r7, r8, r9, sl, fp, lr}
	char c, doformat = 0;

	output->count = 0;
    2934:	2300      	movs	r3, #0
	print_putchar(output, 'E');
	print_int(output, exp);
}
#endif

static void doprint(pPrint output, cpchar fmt, va_list args) {
    2936:	b095      	sub	sp, #84	; 0x54
    2938:	4604      	mov	r4, r0
    293a:	460f      	mov	r7, r1
    293c:	4616      	mov	r6, r2
	char c, doformat = 0;

	output->count = 0;
    293e:	6043      	str	r3, [r0, #4]
}
#endif

#if ( STDIO_USE_HEX == pdON )
static void print_hex(pPrint output, unsigned int x) {
	const char HexTable[16] = {
    2940:	f8df 9344 	ldr.w	r9, [pc, #836]	; 2c88 <doprint+0x358>
    2944:	e001      	b.n	294a <doprint+0x1a>
		// No imprime o caractere nulo (foi incluso essa clusula em 27/06/2014)
		// o caractere nulo somente ser impresso caso for chamado sformat (foi incluso essa clusula em 14/07/2014)
		//	Pois  preciso adicionar o finalizador de string
		if ( (c > 0) || ((c==0) && (output->isSformat)))
			print_putchar(output, c);
	} while (c);
    2946:	2300      	movs	r3, #0
					continue;
				}

				//esta indicando o prefixo...
				if ( (c>='0')&&(c<='9') ) {
					doformat = 1;
    2948:	4647      	mov	r7, r8

	output->count = 0;

	//repete o processo ate encontrar o terminador nulo
	do {
		c = *fmt++;
    294a:	46b8      	mov	r8, r7
    294c:	f818 5b01 	ldrb.w	r5, [r8], #1

		if (doformat) {
    2950:	2b00      	cmp	r3, #0
    2952:	f000 8177 	beq.w	2c44 <doprint+0x314>
			doformat = 0;

			if ( ((c=='l')||(c=='L')) &&(*fmt=='d')) {
    2956:	2d6c      	cmp	r5, #108	; 0x6c
    2958:	d001      	beq.n	295e <doprint+0x2e>
    295a:	2d4c      	cmp	r5, #76	; 0x4c
    295c:	d10c      	bne.n	2978 <doprint+0x48>
    295e:	787b      	ldrb	r3, [r7, #1]
    2960:	2b64      	cmp	r3, #100	; 0x64
    2962:	d109      	bne.n	2978 <doprint+0x48>
				print_long(output, va_arg(args,long));
    2964:	6831      	ldr	r1, [r6, #0]
    2966:	f106 0a04 	add.w	sl, r6, #4
    296a:	4620      	mov	r0, r4
    296c:	f7ff ff61 	bl	2832 <print_long>
				fmt++;
    2970:	f107 0802 	add.w	r8, r7, #2

		if (doformat) {
			doformat = 0;

			if ( ((c=='l')||(c=='L')) &&(*fmt=='d')) {
				print_long(output, va_arg(args,long));
    2974:	4656      	mov	r6, sl
				fmt++;
				continue;
    2976:	e176      	b.n	2c66 <doprint+0x336>
			}

			switch (c) {
    2978:	2d64      	cmp	r5, #100	; 0x64
    297a:	d034      	beq.n	29e6 <doprint+0xb6>
    297c:	d815      	bhi.n	29aa <doprint+0x7a>
    297e:	2d55      	cmp	r5, #85	; 0x55
    2980:	d035      	beq.n	29ee <doprint+0xbe>
    2982:	d80c      	bhi.n	299e <doprint+0x6e>
    2984:	2d44      	cmp	r5, #68	; 0x44
    2986:	d02e      	beq.n	29e6 <doprint+0xb6>
    2988:	d805      	bhi.n	2996 <doprint+0x66>
    298a:	2d25      	cmp	r5, #37	; 0x25
    298c:	d021      	beq.n	29d2 <doprint+0xa2>
    298e:	2d43      	cmp	r5, #67	; 0x43
    2990:	f040 813b 	bne.w	2c0a <doprint+0x2da>
    2994:	e023      	b.n	29de <doprint+0xae>
    2996:	2d53      	cmp	r5, #83	; 0x53
    2998:	f040 8137 	bne.w	2c0a <doprint+0x2da>
    299c:	e06a      	b.n	2a74 <doprint+0x144>
    299e:	2d62      	cmp	r5, #98	; 0x62
    29a0:	f000 80bd 	beq.w	2b1e <doprint+0x1ee>
    29a4:	d81b      	bhi.n	29de <doprint+0xae>
    29a6:	2d58      	cmp	r5, #88	; 0x58
    29a8:	e010      	b.n	29cc <doprint+0x9c>
    29aa:	2d73      	cmp	r5, #115	; 0x73
    29ac:	d062      	beq.n	2a74 <doprint+0x144>
    29ae:	d808      	bhi.n	29c2 <doprint+0x92>
    29b0:	2d66      	cmp	r5, #102	; 0x66
    29b2:	f000 80cf 	beq.w	2b54 <doprint+0x224>
    29b6:	f0c0 80d8 	bcc.w	2b6a <doprint+0x23a>
    29ba:	2d6b      	cmp	r5, #107	; 0x6b
    29bc:	f040 8125 	bne.w	2c0a <doprint+0x2da>
    29c0:	e06e      	b.n	2aa0 <doprint+0x170>
    29c2:	2d75      	cmp	r5, #117	; 0x75
    29c4:	d013      	beq.n	29ee <doprint+0xbe>
    29c6:	f0c0 8089 	bcc.w	2adc <doprint+0x1ac>
    29ca:	2d78      	cmp	r5, #120	; 0x78
    29cc:	f040 811d 	bne.w	2c0a <doprint+0x2da>
    29d0:	e02a      	b.n	2a28 <doprint+0xf8>
			case '%' : print_putchar(output, '%'); break;
    29d2:	4629      	mov	r1, r5
    29d4:	4620      	mov	r0, r4
    29d6:	f7ff feb7 	bl	2748 <print_putchar>
    29da:	4635      	mov	r5, r6
    29dc:	e147      	b.n	2c6e <doprint+0x33e>
			case 'C' :
			case 'c' : print_putchar(output, va_arg(args,int)); break;
    29de:	1d35      	adds	r5, r6, #4
    29e0:	4620      	mov	r0, r4
    29e2:	7831      	ldrb	r1, [r6, #0]
    29e4:	e077      	b.n	2ad6 <doprint+0x1a6>
			case 'D' :
			case 'd' : print_int(output, va_arg(args,int)); break;
    29e6:	1d35      	adds	r5, r6, #4
    29e8:	4620      	mov	r0, r4
    29ea:	6831      	ldr	r1, [r6, #0]
    29ec:	e10a      	b.n	2c04 <doprint+0x2d4>
			case 'U' :
			case 'u' : print_uint(output, va_arg(args,int)); break;
    29ee:	1d35      	adds	r5, r6, #4
    29f0:	6833      	ldr	r3, [r6, #0]
	unsigned int d; //digitos
	string digits;

	d = 0;
	do	{
		digits[d++] = '0' + x%10;
    29f2:	210a      	movs	r1, #10

static void print_uint(pPrint output, unsigned int x) {
	unsigned int d; //digitos
	string digits;

	d = 0;
    29f4:	2600      	movs	r6, #0
	do	{
		digits[d++] = '0' + x%10;
    29f6:	fbb3 f2f1 	udiv	r2, r3, r1
    29fa:	fb01 3312 	mls	r3, r1, r2, r3
    29fe:	a804      	add	r0, sp, #16
    2a00:	3330      	adds	r3, #48	; 0x30
    2a02:	5433      	strb	r3, [r6, r0]
    2a04:	3601      	adds	r6, #1
		x = x/10;
	}while (x);
    2a06:	4613      	mov	r3, r2
    2a08:	2a00      	cmp	r2, #0
    2a0a:	d1f4      	bne.n	29f6 <doprint+0xc6>

	print_fill(output, d);
    2a0c:	4620      	mov	r0, r4
    2a0e:	4631      	mov	r1, r6
    2a10:	f7ff fed4 	bl	27bc <print_fill>
    2a14:	e004      	b.n	2a20 <doprint+0xf0>
	while (d--) print_putchar(output, digits[d]);
    2a16:	ab04      	add	r3, sp, #16
    2a18:	4620      	mov	r0, r4
    2a1a:	5d99      	ldrb	r1, [r3, r6]
    2a1c:	f7ff fe94 	bl	2748 <print_putchar>
    2a20:	f116 36ff 	adds.w	r6, r6, #4294967295
    2a24:	d2f7      	bcs.n	2a16 <doprint+0xe6>
    2a26:	e122      	b.n	2c6e <doprint+0x33e>
			case 'd' : print_int(output, va_arg(args,int)); break;
			case 'U' :
			case 'u' : print_uint(output, va_arg(args,int)); break;
			#if ( STDIO_USE_HEX == pdON )
			case 'X' :
			case 'x' : print_hex(output, va_arg(args,int));	break;
    2a28:	6832      	ldr	r2, [r6, #0]
}
#endif

#if ( STDIO_USE_HEX == pdON )
static void print_hex(pPrint output, unsigned int x) {
	const char HexTable[16] = {
    2a2a:	4b94      	ldr	r3, [pc, #592]	; (2c7c <doprint+0x34c>)
			case 'd' : print_int(output, va_arg(args,int)); break;
			case 'U' :
			case 'u' : print_uint(output, va_arg(args,int)); break;
			#if ( STDIO_USE_HEX == pdON )
			case 'X' :
			case 'x' : print_hex(output, va_arg(args,int));	break;
    2a2c:	1d35      	adds	r5, r6, #4
}
#endif

#if ( STDIO_USE_HEX == pdON )
static void print_hex(pPrint output, unsigned int x) {
	const char HexTable[16] = {
    2a2e:	466f      	mov	r7, sp
    2a30:	6818      	ldr	r0, [r3, #0]
    2a32:	6859      	ldr	r1, [r3, #4]
    2a34:	463e      	mov	r6, r7
    2a36:	c603      	stmia	r6!, {r0, r1}
    2a38:	3308      	adds	r3, #8
    2a3a:	454b      	cmp	r3, r9
    2a3c:	4637      	mov	r7, r6
    2a3e:	d1f7      	bne.n	2a30 <doprint+0x100>
		'0','1','2','3','4','5','6','7','8','9','A','B','C','D','E','F'
	};
	char digits[16];

	int d = 0;
    2a40:	2600      	movs	r6, #0
	do	{
		digits[d++] = HexTable[x&0xF];
    2a42:	f002 030f 	and.w	r3, r2, #15
    2a46:	a914      	add	r1, sp, #80	; 0x50
    2a48:	18cb      	adds	r3, r1, r3
    2a4a:	f813 1c50 	ldrb.w	r1, [r3, #-80]
    2a4e:	ab04      	add	r3, sp, #16
    2a50:	54f1      	strb	r1, [r6, r3]
    2a52:	3601      	adds	r6, #1
		x = x>>4;
	}while (x);
    2a54:	0912      	lsrs	r2, r2, #4
    2a56:	d1f4      	bne.n	2a42 <doprint+0x112>

	//print_putchar(output, '0');
	//print_putchar(output, 'x');
	print_fill(output, d);
    2a58:	4620      	mov	r0, r4
    2a5a:	4631      	mov	r1, r6
    2a5c:	f7ff feae 	bl	27bc <print_fill>
    2a60:	e004      	b.n	2a6c <doprint+0x13c>
	while (d--) print_putchar(output, digits[d]);
    2a62:	ab04      	add	r3, sp, #16
    2a64:	4620      	mov	r0, r4
    2a66:	5d99      	ldrb	r1, [r3, r6]
    2a68:	f7ff fe6e 	bl	2748 <print_putchar>
    2a6c:	f116 36ff 	adds.w	r6, r6, #4294967295
    2a70:	d2f7      	bcs.n	2a62 <doprint+0x132>
    2a72:	e0fc      	b.n	2c6e <doprint+0x33e>
			#if ( STDIO_USE_HEX == pdON )
			case 'X' :
			case 'x' : print_hex(output, va_arg(args,int));	break;
			#endif
			case 'S' :
			case 's' : print_string(output, (char*)va_arg(args,int)); break;
    2a74:	6837      	ldr	r7, [r6, #0]
    2a76:	1d35      	adds	r5, r6, #4
	while (n-->0) print_putchar(output, output->fill);
}

static void print_string(pPrint output, char * s) {
	int d = 0;
	if (s==NULL) return;
    2a78:	2f00      	cmp	r7, #0
    2a7a:	f000 80f8 	beq.w	2c6e <doprint+0x33e>
    2a7e:	2600      	movs	r6, #0
    2a80:	e004      	b.n	2a8c <doprint+0x15c>
	while (s[d])
		print_putchar(output, s[d++]);
    2a82:	4620      	mov	r0, r4
    2a84:	4651      	mov	r1, sl
    2a86:	3601      	adds	r6, #1
    2a88:	f7ff fe5e 	bl	2748 <print_putchar>
}

static void print_string(pPrint output, char * s) {
	int d = 0;
	if (s==NULL) return;
	while (s[d])
    2a8c:	f816 a007 	ldrb.w	sl, [r6, r7]
    2a90:	f1ba 0f00 	cmp.w	sl, #0
    2a94:	d1f5      	bne.n	2a82 <doprint+0x152>
		print_putchar(output, s[d++]);
	print_fill(output, d);
    2a96:	4620      	mov	r0, r4
    2a98:	4631      	mov	r1, r6
    2a9a:	f7ff fe8f 	bl	27bc <print_fill>
    2a9e:	e0e6      	b.n	2c6e <doprint+0x33e>
			case 'x' : print_hex(output, va_arg(args,int));	break;
			#endif
			case 'S' :
			case 's' : print_string(output, (char*)va_arg(args,int)); break;
			#if ( STDIO_USE_SUBINT == pdON )
			case 'k' : print_intF(output, va_arg(args,long));	break;
    2aa0:	1d35      	adds	r5, r6, #4
    2aa2:	6831      	ldr	r1, [r6, #0]
	while (d--) print_putchar(output, digits[d]);
}

#if ( STDIO_USE_SUBINT == pdON )
static void print_intF(pPrint output, long x) {
	int b = 0;
    2aa4:	2600      	movs	r6, #0
    2aa6:	e001      	b.n	2aac <doprint+0x17c>
	while (x>10240) { x = x/1024; b++; }
    2aa8:	1289      	asrs	r1, r1, #10
    2aaa:	3601      	adds	r6, #1
    2aac:	f5b1 5f20 	cmp.w	r1, #10240	; 0x2800
    2ab0:	dcfa      	bgt.n	2aa8 <doprint+0x178>
	print_int(output, x);
    2ab2:	4620      	mov	r0, r4
    2ab4:	f7ff fe8f 	bl	27d6 <print_int>
	if (b==1) print_putchar(output, 'k');
    2ab8:	2e01      	cmp	r6, #1
    2aba:	d102      	bne.n	2ac2 <doprint+0x192>
    2abc:	4620      	mov	r0, r4
    2abe:	216b      	movs	r1, #107	; 0x6b
    2ac0:	e009      	b.n	2ad6 <doprint+0x1a6>
	if (b==2) print_putchar(output, 'M');
    2ac2:	2e02      	cmp	r6, #2
    2ac4:	d102      	bne.n	2acc <doprint+0x19c>
    2ac6:	4620      	mov	r0, r4
    2ac8:	214d      	movs	r1, #77	; 0x4d
    2aca:	e004      	b.n	2ad6 <doprint+0x1a6>
	if (b==3) print_putchar(output, 'G');
    2acc:	2e03      	cmp	r6, #3
    2ace:	f040 80ce 	bne.w	2c6e <doprint+0x33e>
    2ad2:	4620      	mov	r0, r4
    2ad4:	2147      	movs	r1, #71	; 0x47
    2ad6:	f7ff fe37 	bl	2748 <print_putchar>
    2ada:	e0c8      	b.n	2c6e <doprint+0x33e>
			case 's' : print_string(output, (char*)va_arg(args,int)); break;
			#if ( STDIO_USE_SUBINT == pdON )
			case 'k' : print_intF(output, va_arg(args,long));	break;
			#endif
			#if ( STDIO_USE_TIME == pdON )
			case 't' : print_time(output, va_arg(args,long)); break;
    2adc:	f8d6 a000 	ldr.w	sl, [r6]
    2ae0:	1d35      	adds	r5, r6, #4
#if ( STDIO_USE_TIME == pdON )
//tempo em segundos
static void print_time(pPrint output, long x) {
	int h,m,s;

	s = x%60;	x = x/60;
    2ae2:	263c      	movs	r6, #60	; 0x3c
    2ae4:	fb9a f7f6 	sdiv	r7, sl, r6
	m = x%60;	x = x/60;
	h = x;

	//formato = "00:00'00"
	output->prefix = 2;
    2ae8:	2302      	movs	r3, #2
    2aea:	7223      	strb	r3, [r4, #8]
//tempo em segundos
static void print_time(pPrint output, long x) {
	int h,m,s;

	s = x%60;	x = x/60;
	m = x%60;	x = x/60;
    2aec:	fb97 fbf6 	sdiv	fp, r7, r6
	h = x;

	//formato = "00:00'00"
	output->prefix = 2;
	output->fill = '0';
    2af0:	2330      	movs	r3, #48	; 0x30
    2af2:	7263      	strb	r3, [r4, #9]
	print_int(output, h);	print_putchar(output, ':');
    2af4:	4620      	mov	r0, r4
    2af6:	4659      	mov	r1, fp
    2af8:	f7ff fe6d 	bl	27d6 <print_int>
    2afc:	4620      	mov	r0, r4
    2afe:	213a      	movs	r1, #58	; 0x3a
    2b00:	f7ff fe22 	bl	2748 <print_putchar>
	print_int(output, m);	print_putchar(output, 39);
    2b04:	4620      	mov	r0, r4
    2b06:	fb06 711b 	mls	r1, r6, fp, r7
    2b0a:	f7ff fe64 	bl	27d6 <print_int>
    2b0e:	4620      	mov	r0, r4
    2b10:	2127      	movs	r1, #39	; 0x27
    2b12:	f7ff fe19 	bl	2748 <print_putchar>
	print_int(output, s);
    2b16:	4620      	mov	r0, r4
    2b18:	fb06 a117 	mls	r1, r6, r7, sl
    2b1c:	e072      	b.n	2c04 <doprint+0x2d4>

#if ( STDIO_USE_BIN == pdON )
static void print_bin(pPrint output, long x) {
	string digits;
	int d = 0;
	output->fill = '0';
    2b1e:	2230      	movs	r2, #48	; 0x30
			#endif
			#if ( STDIO_USE_TIME == pdON )
			case 't' : print_time(output, va_arg(args,long)); break;
			#endif
			#if ( STDIO_USE_BIN == pdON )
			case 'b' : print_bin(output, va_arg(args,long)); break;
    2b20:	6833      	ldr	r3, [r6, #0]
    2b22:	1d35      	adds	r5, r6, #4

#if ( STDIO_USE_BIN == pdON )
static void print_bin(pPrint output, long x) {
	string digits;
	int d = 0;
	output->fill = '0';
    2b24:	7262      	strb	r2, [r4, #9]
#endif

#if ( STDIO_USE_BIN == pdON )
static void print_bin(pPrint output, long x) {
	string digits;
	int d = 0;
    2b26:	2600      	movs	r6, #0
	output->fill = '0';
	do {
		digits[d++] = '0'+(x&1);
    2b28:	f003 0101 	and.w	r1, r3, #1
    2b2c:	3130      	adds	r1, #48	; 0x30
    2b2e:	aa04      	add	r2, sp, #16
    2b30:	54b1      	strb	r1, [r6, r2]
    2b32:	3601      	adds	r6, #1
		x = x>>1;
	}while (x);
    2b34:	105b      	asrs	r3, r3, #1
    2b36:	d1f7      	bne.n	2b28 <doprint+0x1f8>
	//print_putchar(output, '0');
	//print_putchar(output, 'b');
	print_fill(output, d);
    2b38:	4620      	mov	r0, r4
    2b3a:	4631      	mov	r1, r6
    2b3c:	f7ff fe3e 	bl	27bc <print_fill>
    2b40:	e004      	b.n	2b4c <doprint+0x21c>
	while (d--) print_putchar(output, digits[d]);
    2b42:	ab04      	add	r3, sp, #16
    2b44:	4620      	mov	r0, r4
    2b46:	5d99      	ldrb	r1, [r3, r6]
    2b48:	f7ff fdfe 	bl	2748 <print_putchar>
    2b4c:	f116 36ff 	adds.w	r6, r6, #4294967295
    2b50:	d2f7      	bcs.n	2b42 <doprint+0x212>
    2b52:	e08c      	b.n	2c6e <doprint+0x33e>
			#endif
			#if ( STDIO_USE_BIN == pdON )
			case 'b' : print_bin(output, va_arg(args,long)); break;
			#endif
			#if ( STDIO_USE_FLOAT == pdON )
			case 'f' : print_float(output, va_arg(args, double)); break;
    2b54:	3607      	adds	r6, #7
    2b56:	f026 0607 	bic.w	r6, r6, #7
    2b5a:	4620      	mov	r0, r4
    2b5c:	e9d6 2300 	ldrd	r2, r3, [r6]
    2b60:	f106 0508 	add.w	r5, r6, #8
    2b64:	f7ff fe8a 	bl	287c <print_float>
    2b68:	e081      	b.n	2c6e <doprint+0x33e>
			case 'e' : print_exp(output, va_arg(args, double)); break;
    2b6a:	3607      	adds	r6, #7
    2b6c:	f026 0307 	bic.w	r3, r6, #7
    2b70:	e893 0440 	ldmia.w	r3, {r6, sl}
    2b74:	f103 0508 	add.w	r5, r3, #8
	if (x>1) print_long(output, (long)x);
}

static void print_exp(pPrint output, double x) {
	int exp = 0;
	if (x<0) { print_putchar(output, '-'); x = -x; }
    2b78:	4630      	mov	r0, r6
    2b7a:	4651      	mov	r1, sl
    2b7c:	2200      	movs	r2, #0
    2b7e:	2300      	movs	r3, #0
    2b80:	f7fd ffe6 	bl	b50 <__aeabi_dcmplt>
    2b84:	b128      	cbz	r0, 2b92 <doprint+0x262>
    2b86:	4620      	mov	r0, r4
    2b88:	212d      	movs	r1, #45	; 0x2d
    2b8a:	f7ff fddd 	bl	2748 <print_putchar>
    2b8e:	f10a 4a00 	add.w	sl, sl, #2147483648	; 0x80000000
	if (x!=0) {
    2b92:	4630      	mov	r0, r6
    2b94:	4651      	mov	r1, sl
    2b96:	2200      	movs	r2, #0
    2b98:	2300      	movs	r3, #0
    2b9a:	f7fd ffcf 	bl	b3c <__aeabi_dcmpeq>
    2b9e:	b158      	cbz	r0, 2bb8 <doprint+0x288>
	}
	if (x>1) print_long(output, (long)x);
}

static void print_exp(pPrint output, double x) {
	int exp = 0;
    2ba0:	2700      	movs	r7, #0
    2ba2:	e024      	b.n	2bee <doprint+0x2be>
	if (x<0) { print_putchar(output, '-'); x = -x; }
	if (x!=0) {
		while (x<1) { x = x*10; exp--; }
    2ba4:	4630      	mov	r0, r6
    2ba6:	4651      	mov	r1, sl
    2ba8:	2200      	movs	r2, #0
    2baa:	4b35      	ldr	r3, [pc, #212]	; (2c80 <doprint+0x350>)
    2bac:	f7fd fd5e 	bl	66c <__aeabi_dmul>
    2bb0:	3f01      	subs	r7, #1
    2bb2:	4606      	mov	r6, r0
    2bb4:	468a      	mov	sl, r1
    2bb6:	e000      	b.n	2bba <doprint+0x28a>
}

static void print_exp(pPrint output, double x) {
	int exp = 0;
	if (x<0) { print_putchar(output, '-'); x = -x; }
	if (x!=0) {
    2bb8:	4607      	mov	r7, r0
		while (x<1) { x = x*10; exp--; }
    2bba:	4630      	mov	r0, r6
    2bbc:	4651      	mov	r1, sl
    2bbe:	2200      	movs	r2, #0
    2bc0:	4b30      	ldr	r3, [pc, #192]	; (2c84 <doprint+0x354>)
    2bc2:	f7fd ffc5 	bl	b50 <__aeabi_dcmplt>
    2bc6:	2800      	cmp	r0, #0
    2bc8:	d1ec      	bne.n	2ba4 <doprint+0x274>
    2bca:	e008      	b.n	2bde <doprint+0x2ae>
		while (x>10){ x = x/10; exp++; }
    2bcc:	4630      	mov	r0, r6
    2bce:	4651      	mov	r1, sl
    2bd0:	2200      	movs	r2, #0
    2bd2:	4b2b      	ldr	r3, [pc, #172]	; (2c80 <doprint+0x350>)
    2bd4:	f7fd fe74 	bl	8c0 <__aeabi_ddiv>
    2bd8:	3701      	adds	r7, #1
    2bda:	4606      	mov	r6, r0
    2bdc:	468a      	mov	sl, r1
    2bde:	4630      	mov	r0, r6
    2be0:	4651      	mov	r1, sl
    2be2:	2200      	movs	r2, #0
    2be4:	4b26      	ldr	r3, [pc, #152]	; (2c80 <doprint+0x350>)
    2be6:	f7fd ffd1 	bl	b8c <__aeabi_dcmpgt>
    2bea:	2800      	cmp	r0, #0
    2bec:	d1ee      	bne.n	2bcc <doprint+0x29c>
	}
	print_float(output, x);
    2bee:	4620      	mov	r0, r4
    2bf0:	4632      	mov	r2, r6
    2bf2:	4653      	mov	r3, sl
    2bf4:	f7ff fe42 	bl	287c <print_float>
	print_putchar(output, 'E');
    2bf8:	4620      	mov	r0, r4
    2bfa:	2145      	movs	r1, #69	; 0x45
    2bfc:	f7ff fda4 	bl	2748 <print_putchar>
	print_int(output, exp);
    2c00:	4620      	mov	r0, r4
    2c02:	4639      	mov	r1, r7
    2c04:	f7ff fde7 	bl	27d6 <print_int>
    2c08:	e031      	b.n	2c6e <doprint+0x33e>
			case 'f' : print_float(output, va_arg(args, double)); break;
			case 'e' : print_exp(output, va_arg(args, double)); break;
			#endif
			default :
				// preencher com '0'?
				if ( (c=='0')&&(output->prefix==0) ) {
    2c0a:	2d30      	cmp	r5, #48	; 0x30
    2c0c:	d103      	bne.n	2c16 <doprint+0x2e6>
    2c0e:	7a23      	ldrb	r3, [r4, #8]
    2c10:	b94b      	cbnz	r3, 2c26 <doprint+0x2f6>
					doformat = 1; output->fill = '0';
    2c12:	7265      	strb	r5, [r4, #9]
    2c14:	e01d      	b.n	2c52 <doprint+0x322>
					continue;
				}

				// vai indicar a precisao
				if (c=='.') {
    2c16:	2d2e      	cmp	r5, #46	; 0x2e
    2c18:	d105      	bne.n	2c26 <doprint+0x2f6>
					doformat = 1;
					output->precision = (*fmt++)-'0';
    2c1a:	787b      	ldrb	r3, [r7, #1]
    2c1c:	f107 0802 	add.w	r8, r7, #2
    2c20:	3b30      	subs	r3, #48	; 0x30
    2c22:	72a3      	strb	r3, [r4, #10]
    2c24:	e015      	b.n	2c52 <doprint+0x322>
					continue;
				}

				//esta indicando o prefixo...
				if ( (c>='0')&&(c<='9') ) {
    2c26:	f1a5 0330 	sub.w	r3, r5, #48	; 0x30
    2c2a:	2b09      	cmp	r3, #9
    2c2c:	d807      	bhi.n	2c3e <doprint+0x30e>
					doformat = 1;
					output->prefix = output->prefix*10 + (c - '0');
    2c2e:	7a23      	ldrb	r3, [r4, #8]
    2c30:	220a      	movs	r2, #10
    2c32:	fb02 5503 	mla	r5, r2, r3, r5
    2c36:	3d30      	subs	r5, #48	; 0x30
    2c38:	7225      	strb	r5, [r4, #8]
					continue;
				}

				//esta indicando o prefixo...
				if ( (c>='0')&&(c<='9') ) {
					doformat = 1;
    2c3a:	2301      	movs	r3, #1
    2c3c:	e684      	b.n	2948 <doprint+0x18>
					output->prefix = output->prefix*10 + (c - '0');
					continue;
				}
				print_putchar(output, '?');
    2c3e:	4620      	mov	r0, r4
    2c40:	213f      	movs	r1, #63	; 0x3f
    2c42:	e00e      	b.n	2c62 <doprint+0x332>
				break;
			}
			continue;
		}

		if (c=='%')	{
    2c44:	2d25      	cmp	r5, #37	; 0x25
    2c46:	d107      	bne.n	2c58 <doprint+0x328>
			doformat = 1;
			output->prefix = 0;
    2c48:	7223      	strb	r3, [r4, #8]
			output->precision = 5;
    2c4a:	2305      	movs	r3, #5
    2c4c:	72a3      	strb	r3, [r4, #10]
			output->fill = ' ';
    2c4e:	2320      	movs	r3, #32
    2c50:	7263      	strb	r3, [r4, #9]
			continue;
    2c52:	4635      	mov	r5, r6
			}
			continue;
		}

		if (c=='%')	{
			doformat = 1;
    2c54:	2301      	movs	r3, #1
			output->prefix = 0;
			output->precision = 5;
			output->fill = ' ';
			continue;
    2c56:	e00b      	b.n	2c70 <doprint+0x340>
		}

		// No imprime o caractere nulo (foi incluso essa clusula em 27/06/2014)
		// o caractere nulo somente ser impresso caso for chamado sformat (foi incluso essa clusula em 14/07/2014)
		//	Pois  preciso adicionar o finalizador de string
		if ( (c > 0) || ((c==0) && (output->isSformat)))
    2c58:	b90d      	cbnz	r5, 2c5e <doprint+0x32e>
    2c5a:	7ae3      	ldrb	r3, [r4, #11]
    2c5c:	b153      	cbz	r3, 2c74 <doprint+0x344>
			print_putchar(output, c);
    2c5e:	4620      	mov	r0, r4
    2c60:	4629      	mov	r1, r5
    2c62:	f7ff fd71 	bl	2748 <print_putchar>
	} while (c);
    2c66:	2d00      	cmp	r5, #0
    2c68:	f47f ae6d 	bne.w	2946 <doprint+0x16>
    2c6c:	e002      	b.n	2c74 <doprint+0x344>
	//repete o processo ate encontrar o terminador nulo
	do {
		c = *fmt++;

		if (doformat) {
			doformat = 0;
    2c6e:	2300      	movs	r3, #0
		// No imprime o caractere nulo (foi incluso essa clusula em 27/06/2014)
		// o caractere nulo somente ser impresso caso for chamado sformat (foi incluso essa clusula em 14/07/2014)
		//	Pois  preciso adicionar o finalizador de string
		if ( (c > 0) || ((c==0) && (output->isSformat)))
			print_putchar(output, c);
	} while (c);
    2c70:	462e      	mov	r6, r5
    2c72:	e669      	b.n	2948 <doprint+0x18>
}
    2c74:	b015      	add	sp, #84	; 0x54
    2c76:	e8bd 8ff0 	ldmia.w	sp!, {r4, r5, r6, r7, r8, r9, sl, fp, pc}
    2c7a:	bf00      	nop
    2c7c:	0000365c 	.word	0x0000365c
    2c80:	40240000 	.word	0x40240000
    2c84:	3ff00000 	.word	0x3ff00000
    2c88:	0000366c 	.word	0x0000366c

Disassembly of section .text.lputchar_RegisterDev:

00002c8c <lputchar_RegisterDev>:
}
#endif // #if !defined(LINUX)

// Registra a funo de sada padro
void lputchar_RegisterDev(int (*func_putc)(n16)) {
	stdio_putc = func_putc;
    2c8c:	4b01      	ldr	r3, [pc, #4]	; (2c94 <lputchar_RegisterDev+0x8>)
    2c8e:	6018      	str	r0, [r3, #0]
    2c90:	4770      	bx	lr
    2c92:	bf00      	nop
    2c94:	10000a2c 	.word	0x10000a2c

Disassembly of section .text.ldebug_RegisterDev:

00002c98 <ldebug_RegisterDev>:
}

// Registra a funo de sada padro de LOG
void ldebug_RegisterDev(int (*putc)(n16)) {
	debug_putc = putc;
    2c98:	4b01      	ldr	r3, [pc, #4]	; (2ca0 <ldebug_RegisterDev+0x8>)
    2c9a:	6018      	str	r0, [r3, #0]
    2c9c:	4770      	bx	lr
    2c9e:	bf00      	nop
    2ca0:	10000a44 	.word	0x10000a44

Disassembly of section .text.lgetchar_RegisterDev:

00002ca4 <lgetchar_RegisterDev>:
#endif // #if defined(FREE_RTOS)


// Registra a funo de entrada padro
void lgetchar_RegisterDev(int (*func_getc)(u8*)) {
	stdio_getc = func_getc;
    2ca4:	4b01      	ldr	r3, [pc, #4]	; (2cac <lgetchar_RegisterDev+0x8>)
    2ca6:	6018      	str	r0, [r3, #0]
    2ca8:	4770      	bx	lr
    2caa:	bf00      	nop
    2cac:	10000a40 	.word	0x10000a40

Disassembly of section .text.lgetchar:

00002cb0 <lgetchar>:


// #######################################################################################################################
// FUNES DE ENTRADA E DE SADAS DE IMPRESSO NOS DISPOSITIVOS
// #######################################################################################################################
int lgetchar(u8 *ch) {
    2cb0:	b508      	push	{r3, lr}
	return stdio_getc(ch);
    2cb2:	4b02      	ldr	r3, [pc, #8]	; (2cbc <lgetchar+0xc>)
    2cb4:	681b      	ldr	r3, [r3, #0]
    2cb6:	4798      	blx	r3
}
    2cb8:	bd08      	pop	{r3, pc}
    2cba:	bf00      	nop
    2cbc:	10000a40 	.word	0x10000a40

Disassembly of section .text.rprintf:

00002cc0 <rprintf>:
//	lprintf("BIN: 0b%b 0b%2b"CMD_TERMINATOR, 0x123, 0x456);
//	lprintf("String: %s"CMD_TERMINATOR, "imprimindo");
#if defined(LINUX)
int rprintf(const char* fmt, ...) {
#else
int rprintf(const u8 device, const cpchar fmt, ...) {
    2cc0:	b40e      	push	{r1, r2, r3}
    2cc2:	b53f      	push	{r0, r1, r2, r3, r4, r5, lr}
    2cc4:	aa07      	add	r2, sp, #28
    2cc6:	f852 1b04 	ldr.w	r1, [r2], #4
	#endif

	#if !defined(LINUX)
	output.device = device;			// Sinaliza qual dipositivo de sada deve ser impresso
	#endif
	output.buf = NULL;				// Sinaliza que no vamos usar buffer para formatao de string
    2cca:	2300      	movs	r3, #0
	// Travar o recurso de sada para transmisso completa da mensagem, esperar MAX_DELAY caso o recurso est sendo usado
	ret = xSemaphoreTake(mutex, portMAX_DELAY);
	#endif

	#if !defined(LINUX)
	output.device = device;			// Sinaliza qual dipositivo de sada deve ser impresso
    2ccc:	f88d 0014 	strb.w	r0, [sp, #20]
	output.buf = NULL;				// Sinaliza que no vamos usar buffer para formatao de string
	output.isSformat = 0;			// Sinaliza que no  um sformat

	va_list args;					// Cria var para captura de argumentos (fmt) no stack da chamada de funo
	va_start(args, fmt);			// Captura os argumentos aps fmt
	doprint(&output, fmt, args);	// Faz a formatao da string com ftm e args e manda imprimir
    2cd0:	a802      	add	r0, sp, #8
	#endif

	#if !defined(LINUX)
	output.device = device;			// Sinaliza qual dipositivo de sada deve ser impresso
	#endif
	output.buf = NULL;				// Sinaliza que no vamos usar buffer para formatao de string
    2cd2:	9302      	str	r3, [sp, #8]
	output.isSformat = 0;			// Sinaliza que no  um sformat
    2cd4:	f88d 3013 	strb.w	r3, [sp, #19]

	va_list args;					// Cria var para captura de argumentos (fmt) no stack da chamada de funo
	va_start(args, fmt);			// Captura os argumentos aps fmt
    2cd8:	9201      	str	r2, [sp, #4]
	doprint(&output, fmt, args);	// Faz a formatao da string com ftm e args e manda imprimir
    2cda:	f7ff fe29 	bl	2930 <doprint>
	// Liberar o recuro de saida
	xSemaphoreGive(mutex);
	#endif

  	return ret;
}
    2cde:	2001      	movs	r0, #1
    2ce0:	b006      	add	sp, #24
    2ce2:	f85d eb04 	ldr.w	lr, [sp], #4
    2ce6:	b003      	add	sp, #12
    2ce8:	4770      	bx	lr

Disassembly of section .text.buffer_Init:

00002cea <buffer_Init>:
void buffer_Init(buffer_t *buffer, u8 *start, u16 size) {
	// set start pointer of the buffer
	buffer->dataptr = start;
	buffer->size = size;
	// initialize index and length
	buffer->dataindex = 0;
    2cea:	2300      	movs	r3, #0
// Parametros: 	Endereo da estrutura do buffer, endereo do vetor de dados e o tamanho do vetor
// Retorna: 	Nada
//------------------------------------------------------------------------------------------------------------------
void buffer_Init(buffer_t *buffer, u8 *start, u16 size) {
	// set start pointer of the buffer
	buffer->dataptr = start;
    2cec:	6001      	str	r1, [r0, #0]
	buffer->size = size;
    2cee:	8082      	strh	r2, [r0, #4]
	// initialize index and length
	buffer->dataindex = 0;
    2cf0:	8103      	strh	r3, [r0, #8]
	buffer->datalength = 0;
    2cf2:	80c3      	strh	r3, [r0, #6]
    2cf4:	4770      	bx	lr

Disassembly of section .text.buffer_GetFromFront:

00002cf6 <buffer_GetFromFront>:
//------------------------------------------------------------------------------------------------------------------
// Descrio: 	Retorna com o primeiro caractere do buffer e retira-o do buffer
// Parametros: 	Ponteiro da estrutura do buffer
// Retorna: 	Primeiro caractere do buffer
//------------------------------------------------------------------------------------------------------------------
u8 buffer_GetFromFront(buffer_t *buffer) {
    2cf6:	4603      	mov	r3, r0
	u8 data = 0;
	
	// check to see if there's data in the buffer
	if(buffer->datalength) {
    2cf8:	88c0      	ldrh	r0, [r0, #6]
//------------------------------------------------------------------------------------------------------------------
// Descrio: 	Retorna com o primeiro caractere do buffer e retira-o do buffer
// Parametros: 	Ponteiro da estrutura do buffer
// Retorna: 	Primeiro caractere do buffer
//------------------------------------------------------------------------------------------------------------------
u8 buffer_GetFromFront(buffer_t *buffer) {
    2cfa:	b510      	push	{r4, lr}
	u8 data = 0;
	
	// check to see if there's data in the buffer
	if(buffer->datalength) {
    2cfc:	b280      	uxth	r0, r0
    2cfe:	b1d8      	cbz	r0, 2d38 <buffer_GetFromFront+0x42>
		// get the first character from buffer
		data = buffer->dataptr[buffer->dataindex];
    2d00:	6819      	ldr	r1, [r3, #0]
    2d02:	891a      	ldrh	r2, [r3, #8]
    2d04:	b292      	uxth	r2, r2
    2d06:	5c88      	ldrb	r0, [r1, r2]
		// move index down and decrement length
		buffer->dataindex++;
    2d08:	891a      	ldrh	r2, [r3, #8]
    2d0a:	3201      	adds	r2, #1
    2d0c:	b292      	uxth	r2, r2
    2d0e:	811a      	strh	r2, [r3, #8]
		if(buffer->dataindex >= buffer->size) {
    2d10:	8919      	ldrh	r1, [r3, #8]
    2d12:	889a      	ldrh	r2, [r3, #4]
    2d14:	b289      	uxth	r1, r1
    2d16:	b292      	uxth	r2, r2
    2d18:	4291      	cmp	r1, r2
    2d1a:	d309      	bcc.n	2d30 <buffer_GetFromFront+0x3a>
			buffer->dataindex %= buffer->size;
    2d1c:	8919      	ldrh	r1, [r3, #8]
    2d1e:	889a      	ldrh	r2, [r3, #4]
    2d20:	b289      	uxth	r1, r1
    2d22:	b292      	uxth	r2, r2
    2d24:	fbb1 f4f2 	udiv	r4, r1, r2
    2d28:	fb02 1214 	mls	r2, r2, r4, r1
    2d2c:	b292      	uxth	r2, r2
    2d2e:	811a      	strh	r2, [r3, #8]
		}
		buffer->datalength--;
    2d30:	88da      	ldrh	r2, [r3, #6]
    2d32:	3a01      	subs	r2, #1
    2d34:	b292      	uxth	r2, r2
    2d36:	80da      	strh	r2, [r3, #6]
	}
	
	return data;
}
    2d38:	bd10      	pop	{r4, pc}

Disassembly of section .text.buffer_AddToEnd:

00002d3a <buffer_AddToEnd>:
// Parametros: 	Ponteiro para estrutura do buffer e o dados a ser gravados
// Retorna: 	pdPASS se o dados for gravado com sucesso ou erro de acesso
//------------------------------------------------------------------------------------------------------------------
int buffer_AddToEnd(buffer_t* buffer, u8 data) {
	// make sure the buffer has room
	if(buffer->datalength < buffer->size) {
    2d3a:	88c2      	ldrh	r2, [r0, #6]
    2d3c:	8883      	ldrh	r3, [r0, #4]
    2d3e:	b292      	uxth	r2, r2
    2d40:	b29b      	uxth	r3, r3
    2d42:	429a      	cmp	r2, r3
//------------------------------------------------------------------------------------------------------------------
// Descrio: 	Adiciona o caractere no fim do buffer
// Parametros: 	Ponteiro para estrutura do buffer e o dados a ser gravados
// Retorna: 	pdPASS se o dados for gravado com sucesso ou erro de acesso
//------------------------------------------------------------------------------------------------------------------
int buffer_AddToEnd(buffer_t* buffer, u8 data) {
    2d44:	b530      	push	{r4, r5, lr}
	// make sure the buffer has room
	if(buffer->datalength < buffer->size) {
    2d46:	d212      	bcs.n	2d6e <buffer_AddToEnd+0x34>
		// save data byte at end of buffer
		buffer->dataptr[(buffer->dataindex + buffer->datalength) % buffer->size] = data;
    2d48:	6804      	ldr	r4, [r0, #0]
    2d4a:	8905      	ldrh	r5, [r0, #8]
    2d4c:	88c2      	ldrh	r2, [r0, #6]
    2d4e:	8883      	ldrh	r3, [r0, #4]
    2d50:	b2ad      	uxth	r5, r5
    2d52:	b292      	uxth	r2, r2
    2d54:	18aa      	adds	r2, r5, r2
    2d56:	b29b      	uxth	r3, r3
    2d58:	fb92 f5f3 	sdiv	r5, r2, r3
    2d5c:	fb03 2315 	mls	r3, r3, r5, r2
    2d60:	54e1      	strb	r1, [r4, r3]
		// increment the length
		buffer->datalength++;
    2d62:	88c3      	ldrh	r3, [r0, #6]
    2d64:	3301      	adds	r3, #1
    2d66:	b29b      	uxth	r3, r3
    2d68:	80c3      	strh	r3, [r0, #6]
		// return success
		return pdPASS;
    2d6a:	2001      	movs	r0, #1
    2d6c:	bd30      	pop	{r4, r5, pc}
	} else 
		return errBUFFER_FULL;
    2d6e:	f06f 0009 	mvn.w	r0, #9
}
    2d72:	bd30      	pop	{r4, r5, pc}

Disassembly of section .text.buffer_IsEmpty:

00002d74 <buffer_IsEmpty>:
// Descrio: 	Verifica se o buffer esta vazio
// Parametros: 	Ponteiro para estrutura do buffer
// Retorna: 	Retorna pdTRUE se o buffer est vazio
//------------------------------------------------------------------------------------------------------------------
int buffer_IsEmpty(buffer_t *buffer) {
	if (buffer->datalength == 0)
    2d74:	88c0      	ldrh	r0, [r0, #6]
    2d76:	b280      	uxth	r0, r0
		return pdTRUE;
	else
		return pdFALSE;
}
    2d78:	f1d0 0001 	rsbs	r0, r0, #1
    2d7c:	bf38      	it	cc
    2d7e:	2000      	movcc	r0, #0
    2d80:	4770      	bx	lr

Disassembly of section .text.buffer_Clear:

00002d82 <buffer_Clear>:
// Descrio: 	Limpa o buffer de recepo
// Parametros: 	Ponteiro para estrutura do buffer
// Retorna: 	Nada
//------------------------------------------------------------------------------------------------------------------
void buffer_Clear(buffer_t* buffer) {
	buffer->datalength = 0;
    2d82:	2300      	movs	r3, #0
    2d84:	80c3      	strh	r3, [r0, #6]
    2d86:	4770      	bx	lr

Disassembly of section .text.xatoi:

00002d88 <xatoi>:
// Descrio: 	Converte uma string no formato hex, bin ou octal para um nmero inteiro
//				Exemplos: "0x10" ret 16. 	"-100" ret -100. 	"0b1100" ret 12
// Parametros: 	Endereo da string para ser convertida e o endereo da var inteira par retorno da converso
// Retorna: 	pdTRUE se houve converso ou pdFALSE caso no foi possivel converter
//------------------------------------------------------------------------------------------------------------------
int xatoi (char **str, long *res) {
    2d88:	b570      	push	{r4, r5, r6, lr}
	u32 val;
	u8 c, radix, s = 0;


	while ((c = **str) == ' ') (*str)++;
    2d8a:	e001      	b.n	2d90 <xatoi+0x8>
    2d8c:	3201      	adds	r2, #1
    2d8e:	6002      	str	r2, [r0, #0]
    2d90:	6802      	ldr	r2, [r0, #0]
    2d92:	7813      	ldrb	r3, [r2, #0]
    2d94:	2b20      	cmp	r3, #32
    2d96:	d0f9      	beq.n	2d8c <xatoi+0x4>
	if (c == '-') {
    2d98:	2b2d      	cmp	r3, #45	; 0x2d
    2d9a:	d104      	bne.n	2da6 <xatoi+0x1e>
		s = 1;
		c = *(++(*str));
    2d9c:	1c53      	adds	r3, r2, #1
    2d9e:	6003      	str	r3, [r0, #0]
    2da0:	7853      	ldrb	r3, [r2, #1]
	u8 c, radix, s = 0;


	while ((c = **str) == ' ') (*str)++;
	if (c == '-') {
		s = 1;
    2da2:	2601      	movs	r6, #1
    2da4:	e000      	b.n	2da8 <xatoi+0x20>
// Parametros: 	Endereo da string para ser convertida e o endereo da var inteira par retorno da converso
// Retorna: 	pdTRUE se houve converso ou pdFALSE caso no foi possivel converter
//------------------------------------------------------------------------------------------------------------------
int xatoi (char **str, long *res) {
	u32 val;
	u8 c, radix, s = 0;
    2da6:	2600      	movs	r6, #0
	if (c == '-') {
		s = 1;
		c = *(++(*str));
	}
	
	if (c == '0') {
    2da8:	2b30      	cmp	r3, #48	; 0x30
    2daa:	d11c      	bne.n	2de6 <xatoi+0x5e>
		c = *(++(*str));
    2dac:	6802      	ldr	r2, [r0, #0]
    2dae:	1c53      	adds	r3, r2, #1
    2db0:	6003      	str	r3, [r0, #0]
    2db2:	7853      	ldrb	r3, [r2, #1]
		if (c <= ' ') {
    2db4:	2b20      	cmp	r3, #32
    2db6:	d802      	bhi.n	2dbe <xatoi+0x36>
			*res = 0; return pdTRUE;
    2db8:	2300      	movs	r3, #0
    2dba:	600b      	str	r3, [r1, #0]
    2dbc:	e036      	b.n	2e2c <xatoi+0xa4>
		}
		if (c == 'x') {
    2dbe:	2b78      	cmp	r3, #120	; 0x78
    2dc0:	d104      	bne.n	2dcc <xatoi+0x44>
			radix = 16;
			c = *(++(*str));
    2dc2:	1c93      	adds	r3, r2, #2
    2dc4:	6003      	str	r3, [r0, #0]
    2dc6:	7893      	ldrb	r3, [r2, #2]
		c = *(++(*str));
		if (c <= ' ') {
			*res = 0; return pdTRUE;
		}
		if (c == 'x') {
			radix = 16;
    2dc8:	2410      	movs	r4, #16
    2dca:	e013      	b.n	2df4 <xatoi+0x6c>
			c = *(++(*str));
		} else {
			if (c == 'b') {
    2dcc:	2b62      	cmp	r3, #98	; 0x62
    2dce:	d104      	bne.n	2dda <xatoi+0x52>
				radix = 2;
				c = *(++(*str));
    2dd0:	1c93      	adds	r3, r2, #2
    2dd2:	6003      	str	r3, [r0, #0]
    2dd4:	7893      	ldrb	r3, [r2, #2]
		if (c == 'x') {
			radix = 16;
			c = *(++(*str));
		} else {
			if (c == 'b') {
				radix = 2;
    2dd6:	2402      	movs	r4, #2
    2dd8:	e00c      	b.n	2df4 <xatoi+0x6c>
				c = *(++(*str));
			} else {
				if ((c >= '0')&&(c <= '9'))
    2dda:	f1a3 0230 	sub.w	r2, r3, #48	; 0x30
    2dde:	2a09      	cmp	r2, #9
    2de0:	d907      	bls.n	2df2 <xatoi+0x6a>
					radix = 8;
				else
					return pdFALSE;
    2de2:	2000      	movs	r0, #0
    2de4:	bd70      	pop	{r4, r5, r6, pc}
			}
		}
	} else {
		if ((c < '1')||(c > '9'))
    2de6:	f1a3 0231 	sub.w	r2, r3, #49	; 0x31
    2dea:	2a08      	cmp	r2, #8
    2dec:	d8f9      	bhi.n	2de2 <xatoi+0x5a>
			return pdFALSE;
		radix = 10;
    2dee:	240a      	movs	r4, #10
    2df0:	e000      	b.n	2df4 <xatoi+0x6c>
			if (c == 'b') {
				radix = 2;
				c = *(++(*str));
			} else {
				if ((c >= '0')&&(c <= '9'))
					radix = 8;
    2df2:	2408      	movs	r4, #8
	} else {
		if ((c < '1')||(c > '9'))
			return pdFALSE;
		radix = 10;
	}
	val = 0;
    2df4:	2200      	movs	r2, #0
	while (c > ' ') {
    2df6:	e014      	b.n	2e22 <xatoi+0x9a>
		if (c >= 'a') c -= 0x20;
    2df8:	2b60      	cmp	r3, #96	; 0x60
    2dfa:	d901      	bls.n	2e00 <xatoi+0x78>
    2dfc:	3b20      	subs	r3, #32
    2dfe:	b2db      	uxtb	r3, r3
		c -= '0';
    2e00:	f1a3 0530 	sub.w	r5, r3, #48	; 0x30
    2e04:	b2ed      	uxtb	r5, r5
		if (c >= 17) {
    2e06:	2d10      	cmp	r5, #16
    2e08:	d903      	bls.n	2e12 <xatoi+0x8a>
			c -= 7;
    2e0a:	3b37      	subs	r3, #55	; 0x37
    2e0c:	b2dd      	uxtb	r5, r3
			if (c <= 9) return pdFALSE;
    2e0e:	2d09      	cmp	r5, #9
    2e10:	d9e7      	bls.n	2de2 <xatoi+0x5a>
		}
		if (c >= radix) return pdFALSE;
    2e12:	42a5      	cmp	r5, r4
    2e14:	d2e5      	bcs.n	2de2 <xatoi+0x5a>
		val = val * radix + c;
		c = *(++(*str));
    2e16:	6803      	ldr	r3, [r0, #0]
		if (c >= 17) {
			c -= 7;
			if (c <= 9) return pdFALSE;
		}
		if (c >= radix) return pdFALSE;
		val = val * radix + c;
    2e18:	fb04 5202 	mla	r2, r4, r2, r5
		c = *(++(*str));
    2e1c:	1c5d      	adds	r5, r3, #1
    2e1e:	6005      	str	r5, [r0, #0]
    2e20:	785b      	ldrb	r3, [r3, #1]
		if ((c < '1')||(c > '9'))
			return pdFALSE;
		radix = 10;
	}
	val = 0;
	while (c > ' ') {
    2e22:	2b20      	cmp	r3, #32
    2e24:	d8e8      	bhi.n	2df8 <xatoi+0x70>
		}
		if (c >= radix) return pdFALSE;
		val = val * radix + c;
		c = *(++(*str));
	}
	if (s) val = -val;
    2e26:	b106      	cbz	r6, 2e2a <xatoi+0xa2>
    2e28:	4252      	negs	r2, r2
	*res = val;
    2e2a:	600a      	str	r2, [r1, #0]
	return pdTRUE;
    2e2c:	2001      	movs	r0, #1
}
    2e2e:	bd70      	pop	{r4, r5, r6, pc}

Disassembly of section .text.crc16_Right:

00002e30 <crc16_Right>:
//16bits CRC right shifted
//data = buffer de bytes a serem calculados
//length = quantidade de bytes
//poly = polinomio original
//init = valor inicial do crc
static u16 crc16_Right(void* data, int length, u16 poly, u16 init) {
    2e30:	b570      	push	{r4, r5, r6, lr}
    2e32:	2510      	movs	r5, #16
static u16 crc16_Right(void* data, int length, u16 poly, u16 init);
static u16 crc16_Left(void* data, int length, u16 poly, u16 init);

//cria espelho do polinomio
static u16 crc16_Poly (u16 poly) {
    u16 i, r = 0;
    2e34:	2400      	movs	r4, #0
    for (i=0;i<16;i++) {
        r = r << 1;
    2e36:	0064      	lsls	r4, r4, #1
    2e38:	3d01      	subs	r5, #1
        r = r | (poly&1);
    2e3a:	f002 0601 	and.w	r6, r2, #1

//cria espelho do polinomio
static u16 crc16_Poly (u16 poly) {
    u16 i, r = 0;
    for (i=0;i<16;i++) {
        r = r << 1;
    2e3e:	b2a4      	uxth	r4, r4
    2e40:	b2ad      	uxth	r5, r5
        r = r | (poly&1);
    2e42:	4334      	orrs	r4, r6
        poly = poly >> 1;
    2e44:	0852      	lsrs	r2, r2, #1
static u16 crc16_Left(void* data, int length, u16 poly, u16 init);

//cria espelho do polinomio
static u16 crc16_Poly (u16 poly) {
    u16 i, r = 0;
    for (i=0;i<16;i++) {
    2e46:	2d00      	cmp	r5, #0
    2e48:	d1f5      	bne.n	2e36 <crc16_Right+0x6>
//16bits CRC right shifted
//data = buffer de bytes a serem calculados
//length = quantidade de bytes
//poly = polinomio original
//init = valor inicial do crc
static u16 crc16_Right(void* data, int length, u16 poly, u16 init) {
    2e4a:	1841      	adds	r1, r0, r1
	u16 i, crc = init;
	u8 * p = data;
    2e4c:	4602      	mov	r2, r0
//data = buffer de bytes a serem calculados
//length = quantidade de bytes
//poly = polinomio original
//init = valor inicial do crc
static u16 crc16_Right(void* data, int length, u16 poly, u16 init) {
	u16 i, crc = init;
    2e4e:	4618      	mov	r0, r3
	u8 * p = data;
	poly = crc16_Poly(poly);
	while (length--) {
    2e50:	e00e      	b.n	2e70 <crc16_Right+0x40>
		crc = crc ^ (*p++);
    2e52:	f812 3b01 	ldrb.w	r3, [r2], #1
    2e56:	4058      	eors	r0, r3
    2e58:	2308      	movs	r3, #8
		for (i = 0; i < 8; i++)
			crc = (crc & 0x0001) ? (crc >> 1) ^ poly : (crc >> 1);
    2e5a:	f010 0f01 	tst.w	r0, #1
    2e5e:	ea4f 0050 	mov.w	r0, r0, lsr #1
    2e62:	b280      	uxth	r0, r0
    2e64:	bf18      	it	ne
    2e66:	4060      	eorne	r0, r4
    2e68:	3b01      	subs	r3, #1
    2e6a:	b29b      	uxth	r3, r3
	u16 i, crc = init;
	u8 * p = data;
	poly = crc16_Poly(poly);
	while (length--) {
		crc = crc ^ (*p++);
		for (i = 0; i < 8; i++)
    2e6c:	2b00      	cmp	r3, #0
    2e6e:	d1f4      	bne.n	2e5a <crc16_Right+0x2a>
//init = valor inicial do crc
static u16 crc16_Right(void* data, int length, u16 poly, u16 init) {
	u16 i, crc = init;
	u8 * p = data;
	poly = crc16_Poly(poly);
	while (length--) {
    2e70:	428a      	cmp	r2, r1
    2e72:	d1ee      	bne.n	2e52 <crc16_Right+0x22>
		crc = crc ^ (*p++);
		for (i = 0; i < 8; i++)
			crc = (crc & 0x0001) ? (crc >> 1) ^ poly : (crc >> 1);
	}
	return crc;
}
    2e74:	bd70      	pop	{r4, r5, r6, pc}

Disassembly of section .text.crc16_MODBUS:

00002e76 <crc16_MODBUS>:
	return crc16_Right( data, length, 0x8005, 0x0000);
}

//poly = x16 + x15 + x2 + x0 = 0x8005
u16 crc16_MODBUS(void * data, int length) {
	return crc16_Right( data, length, 0x8005, 0xFFFF );
    2e76:	f248 0205 	movw	r2, #32773	; 0x8005
    2e7a:	f64f 73ff 	movw	r3, #65535	; 0xffff
    2e7e:	f7ff bfd7 	b.w	2e30 <crc16_Right>

Disassembly of section .text.ValidatePacket:

00002e84 <ValidatePacket>:
//				errMODBUS_CMD: O comando (funo) do pacote de recebimento do escravo no bate com o comando enviado a ele
//				errMODBUS_EXCEPTION: Sinaliza que o escravo enviou uma exceo, consultar status
// -------------------------------------------------------------------------------------------------------------------
static int ValidatePacket(void) {
    // checar se o ID do escravo  o mesmo enviado
    if (modbus.querie[0] != modbus.slaveID)
    2e84:	4b0f      	ldr	r3, [pc, #60]	; (2ec4 <ValidatePacket+0x40>)
    2e86:	7c19      	ldrb	r1, [r3, #16]
    2e88:	f8d3 2110 	ldr.w	r2, [r3, #272]	; 0x110
    2e8c:	4291      	cmp	r1, r2
    2e8e:	d110      	bne.n	2eb2 <ValidatePacket+0x2e>
		return errMODBUS_ID;

	 // checar se a funo  a mesma enviada
    if ((modbus.querie[1] & 0x7f) != modbus.cmd)
    2e90:	7c5a      	ldrb	r2, [r3, #17]
    2e92:	f8d3 1114 	ldr.w	r1, [r3, #276]	; 0x114
    2e96:	f002 007f 	and.w	r0, r2, #127	; 0x7f
    2e9a:	4288      	cmp	r0, r1
    2e9c:	d10c      	bne.n	2eb8 <ValidatePacket+0x34>
        return errMODBUS_CMD;

	// checa se o escravo mandou algum erro de exceo
	if ((modbus.querie[1] & 0x80) > 0) {
    2e9e:	f002 0280 	and.w	r2, r2, #128	; 0x80
    2ea2:	b2d2      	uxtb	r2, r2
    2ea4:	b15a      	cbz	r2, 2ebe <ValidatePacket+0x3a>
        modbus.exception = modbus.querie[2];
    2ea6:	7c9a      	ldrb	r2, [r3, #18]
        return errMODBUS_EXCEPTION;
    2ea8:	f06f 0081 	mvn.w	r0, #129	; 0x81
    if ((modbus.querie[1] & 0x7f) != modbus.cmd)
        return errMODBUS_CMD;

	// checa se o escravo mandou algum erro de exceo
	if ((modbus.querie[1] & 0x80) > 0) {
        modbus.exception = modbus.querie[2];
    2eac:	f8c3 2138 	str.w	r2, [r3, #312]	; 0x138
        return errMODBUS_EXCEPTION;
    2eb0:	4770      	bx	lr
//				errMODBUS_EXCEPTION: Sinaliza que o escravo enviou uma exceo, consultar status
// -------------------------------------------------------------------------------------------------------------------
static int ValidatePacket(void) {
    // checar se o ID do escravo  o mesmo enviado
    if (modbus.querie[0] != modbus.slaveID)
		return errMODBUS_ID;
    2eb2:	f06f 007e 	mvn.w	r0, #126	; 0x7e
    2eb6:	4770      	bx	lr

	 // checar se a funo  a mesma enviada
    if ((modbus.querie[1] & 0x7f) != modbus.cmd)
        return errMODBUS_CMD;
    2eb8:	f06f 0080 	mvn.w	r0, #128	; 0x80
    2ebc:	4770      	bx	lr
	if ((modbus.querie[1] & 0x80) > 0) {
        modbus.exception = modbus.querie[2];
        return errMODBUS_EXCEPTION;
	}

	return pdPASS;
    2ebe:	2001      	movs	r0, #1
}
    2ec0:	4770      	bx	lr
    2ec2:	bf00      	nop
    2ec4:	10000a50 	.word	0x10000a50

Disassembly of section .text.modbus_MasterInit:

00002ec8 <modbus_MasterInit>:
void modbus_MasterInit(
	int(*puts_func)(u8* buffer, u16 count),
	int(*getc_func)(u8* ch),
	void(*flushRX_func)(void)
) {
	modbus.ps = puts_func;
    2ec8:	4b0b      	ldr	r3, [pc, #44]	; (2ef8 <modbus_MasterInit+0x30>)
	modbus.gc = getc_func;
	modbus.flushRX = flushRX_func;
    2eca:	e883 0007 	stmia.w	r3, {r0, r1, r2}

	modbus.slaveID = 0;
    2ece:	2200      	movs	r2, #0
	modbus.sts = 0;
	modbus.regs = NULL;
	modbus.len = 0;
	modbus.waitResponse = pdFALSE;
	modbus.exception = modbusNO_ERROR;
	modbus.tout = 0;
    2ed0:	f8c3 211c 	str.w	r2, [r3, #284]	; 0x11c
) {
	modbus.ps = puts_func;
	modbus.gc = getc_func;
	modbus.flushRX = flushRX_func;

	modbus.slaveID = 0;
    2ed4:	f8c3 2110 	str.w	r2, [r3, #272]	; 0x110
	modbus.cmd = 0;
    2ed8:	f8c3 2114 	str.w	r2, [r3, #276]	; 0x114
	modbus.sts = 0;
    2edc:	f8c3 2134 	str.w	r2, [r3, #308]	; 0x134
	modbus.regs = NULL;
    2ee0:	f8c3 2124 	str.w	r2, [r3, #292]	; 0x124
	modbus.len = 0;
    2ee4:	f8c3 2128 	str.w	r2, [r3, #296]	; 0x128
	modbus.waitResponse = pdFALSE;
    2ee8:	f8c3 2118 	str.w	r2, [r3, #280]	; 0x118
	modbus.exception = modbusNO_ERROR;
    2eec:	f8c3 2138 	str.w	r2, [r3, #312]	; 0x138
	modbus.tout = 0;
	modbus.timeDataIn = modbusTIME_DATE_IN;
    2ef0:	22c8      	movs	r2, #200	; 0xc8
    2ef2:	f8c3 2120 	str.w	r2, [r3, #288]	; 0x120
    2ef6:	4770      	bx	lr
    2ef8:	10000a50 	.word	0x10000a50

Disassembly of section .text.modbus_MasterTimeout:

00002efc <modbus_MasterTimeout>:
// Parametro:	timeout:  Tempo de espera pela resposta do escravo aps envio de um comando
// Retorna:		Nada
// -------------------------------------------------------------------------------------------------------------------
// Exemplo para readregs_func:	modbus_MasterTimeout(3000); timeout = 3000 (3 segundos)
void modbus_MasterTimeout(uint timeout) {
	modbus.timeout = timeout;
    2efc:	4b01      	ldr	r3, [pc, #4]	; (2f04 <modbus_MasterTimeout+0x8>)
    2efe:	60d8      	str	r0, [r3, #12]
    2f00:	4770      	bx	lr
    2f02:	bf00      	nop
    2f04:	10000a50 	.word	0x10000a50

Disassembly of section .text.modbus_MasterReadStatus:

00002f08 <modbus_MasterReadStatus>:
//				errMODBUS_EXCEPTION: Sinaliza que o escravo enviou uma exceo, consultar status
//				errMODBUS_LEN
// -------------------------------------------------------------------------------------------------------------------
int modbus_MasterReadStatus(void) {
	return modbus.sts;
}
    2f08:	4b01      	ldr	r3, [pc, #4]	; (2f10 <modbus_MasterReadStatus+0x8>)
    2f0a:	f8d3 0134 	ldr.w	r0, [r3, #308]	; 0x134
    2f0e:	4770      	bx	lr
    2f10:	10000a50 	.word	0x10000a50

Disassembly of section .text.modbus_MasterReadException:

00002f14 <modbus_MasterReadException>:
// 				modbusILLEGAL_DATA_VALUE: O valor contido no campo de dado no  permitido pelo escravo. Isto indica uma falta de informaes na estrutura do campo de dados.
// 				modbusSLAVE_DEVICE_FAILURE: Um irrecupervel erro ocorreu enquanto o escravo estava tentando executar a ao solicitada.
// -------------------------------------------------------------------------------------------------------------------
int modbus_MasterReadException(void) {
	return modbus.exception;
}
    2f14:	4b01      	ldr	r3, [pc, #4]	; (2f1c <modbus_MasterReadException+0x8>)
    2f16:	f8d3 0138 	ldr.w	r0, [r3, #312]	; 0x138
    2f1a:	4770      	bx	lr
    2f1c:	10000a50 	.word	0x10000a50

Disassembly of section .text.modbus_MasterReadRegisters:

00002f20 <modbus_MasterReadRegisters>:
//					pdPASS: Avisar ao sistema que a leitura dos registradores foi feita com sucesso e  para capturar seus valores
//					errMODBUS_BUSY: Sinaliza que o gerenciador est no processo de comunicao com o escravo
//  				errMODBUS_XXXXX: Notificar ao sistema o tipo de erro e tomar procedimento cabveis
//						sistema deve consultar com a funo modbus_MasterReadStatus()
// -------------------------------------------------------------------------------------------------------------------
int modbus_MasterReadRegisters(int addrSlave, int addrInit, int len, u16* regs) {
    2f20:	b5f8      	push	{r3, r4, r5, r6, r7, lr}
	if (modbus.waitResponse) return pdFAIL;
    2f22:	4c1d      	ldr	r4, [pc, #116]	; (2f98 <modbus_MasterReadRegisters+0x78>)
//					pdPASS: Avisar ao sistema que a leitura dos registradores foi feita com sucesso e  para capturar seus valores
//					errMODBUS_BUSY: Sinaliza que o gerenciador est no processo de comunicao com o escravo
//  				errMODBUS_XXXXX: Notificar ao sistema o tipo de erro e tomar procedimento cabveis
//						sistema deve consultar com a funo modbus_MasterReadStatus()
// -------------------------------------------------------------------------------------------------------------------
int modbus_MasterReadRegisters(int addrSlave, int addrInit, int len, u16* regs) {
    2f24:	460f      	mov	r7, r1
	if (modbus.waitResponse) return pdFAIL;
    2f26:	f8d4 6118 	ldr.w	r6, [r4, #280]	; 0x118
//					pdPASS: Avisar ao sistema que a leitura dos registradores foi feita com sucesso e  para capturar seus valores
//					errMODBUS_BUSY: Sinaliza que o gerenciador est no processo de comunicao com o escravo
//  				errMODBUS_XXXXX: Notificar ao sistema o tipo de erro e tomar procedimento cabveis
//						sistema deve consultar com a funo modbus_MasterReadStatus()
// -------------------------------------------------------------------------------------------------------------------
int modbus_MasterReadRegisters(int addrSlave, int addrInit, int len, u16* regs) {
    2f2a:	4615      	mov	r5, r2
	if (modbus.waitResponse) return pdFAIL;
    2f2c:	bb96      	cbnz	r6, 2f94 <modbus_MasterReadRegisters+0x74>

	modbus.slaveID = addrSlave;
	modbus.cmd = 3;
    2f2e:	2203      	movs	r2, #3
	modbus.len = len;
	modbus.regs = regs;
    2f30:	f8c4 3124 	str.w	r3, [r4, #292]	; 0x124
	modbus.sts = errMODBUS_BUSY;
    2f34:	f06f 0385 	mvn.w	r3, #133	; 0x85
// -------------------------------------------------------------------------------------------------------------------
int modbus_MasterReadRegisters(int addrSlave, int addrInit, int len, u16* regs) {
	if (modbus.waitResponse) return pdFAIL;

	modbus.slaveID = addrSlave;
	modbus.cmd = 3;
    2f38:	f8c4 2114 	str.w	r2, [r4, #276]	; 0x114
//						sistema deve consultar com a funo modbus_MasterReadStatus()
// -------------------------------------------------------------------------------------------------------------------
int modbus_MasterReadRegisters(int addrSlave, int addrInit, int len, u16* regs) {
	if (modbus.waitResponse) return pdFAIL;

	modbus.slaveID = addrSlave;
    2f3c:	f8c4 0110 	str.w	r0, [r4, #272]	; 0x110
	modbus.cmd = 3;
	modbus.len = len;
	modbus.regs = regs;
	modbus.sts = errMODBUS_BUSY;
    2f40:	f8c4 3134 	str.w	r3, [r4, #308]	; 0x134
int modbus_MasterReadRegisters(int addrSlave, int addrInit, int len, u16* regs) {
	if (modbus.waitResponse) return pdFAIL;

	modbus.slaveID = addrSlave;
	modbus.cmd = 3;
	modbus.len = len;
    2f44:	f8c4 5128 	str.w	r5, [r4, #296]	; 0x128
	modbus.regs = regs;
	modbus.sts = errMODBUS_BUSY;

	modbus.flushRX(); // limpa os byffers RX da serial
    2f48:	68a3      	ldr	r3, [r4, #8]
    2f4a:	4798      	blx	r3

   	// preparar a query
	modbus.querie[0] = modbus.slaveID;
    2f4c:	f8d4 3110 	ldr.w	r3, [r4, #272]	; 0x110
    modbus.querie[1] = modbus.cmd;
    modbus.querie[2] = (addrInit >> 8) & 0xff;
    modbus.querie[3] = addrInit & 0xff;
    modbus.querie[4] = (len >> 8) & 0xff;
    modbus.querie[5] = len & 0xff;
    u16 crc = crc16_MODBUS(modbus.querie, 6);
    2f50:	2106      	movs	r1, #6
	modbus.sts = errMODBUS_BUSY;

	modbus.flushRX(); // limpa os byffers RX da serial

   	// preparar a query
	modbus.querie[0] = modbus.slaveID;
    2f52:	7423      	strb	r3, [r4, #16]
    modbus.querie[1] = modbus.cmd;
    2f54:	f8d4 3114 	ldr.w	r3, [r4, #276]	; 0x114
    modbus.querie[2] = (addrInit >> 8) & 0xff;
    modbus.querie[3] = addrInit & 0xff;
    modbus.querie[4] = (len >> 8) & 0xff;
    modbus.querie[5] = len & 0xff;
    u16 crc = crc16_MODBUS(modbus.querie, 6);
    2f58:	f104 0010 	add.w	r0, r4, #16

	modbus.flushRX(); // limpa os byffers RX da serial

   	// preparar a query
	modbus.querie[0] = modbus.slaveID;
    modbus.querie[1] = modbus.cmd;
    2f5c:	7463      	strb	r3, [r4, #17]
    modbus.querie[2] = (addrInit >> 8) & 0xff;
    2f5e:	123b      	asrs	r3, r7, #8
    2f60:	74a3      	strb	r3, [r4, #18]
    modbus.querie[3] = addrInit & 0xff;
    modbus.querie[4] = (len >> 8) & 0xff;
    2f62:	122b      	asrs	r3, r5, #8
    2f64:	7523      	strb	r3, [r4, #20]

   	// preparar a query
	modbus.querie[0] = modbus.slaveID;
    modbus.querie[1] = modbus.cmd;
    modbus.querie[2] = (addrInit >> 8) & 0xff;
    modbus.querie[3] = addrInit & 0xff;
    2f66:	74e7      	strb	r7, [r4, #19]
    modbus.querie[4] = (len >> 8) & 0xff;
    modbus.querie[5] = len & 0xff;
    2f68:	7565      	strb	r5, [r4, #21]
    u16 crc = crc16_MODBUS(modbus.querie, 6);
    2f6a:	f7ff ff84 	bl	2e76 <crc16_MODBUS>
    modbus.querie[6] = crc & 0xff;
    2f6e:	75a0      	strb	r0, [r4, #22]
    modbus.querie[7] = (crc >> 8) & 0xff;
    2f70:	0a00      	lsrs	r0, r0, #8
    2f72:	75e0      	strb	r0, [r4, #23]

    // enviar a query para o escravo
    if (modbus.ps(modbus.querie, 8) < 0) {
    2f74:	4620      	mov	r0, r4
    2f76:	2108      	movs	r1, #8
    2f78:	f850 3b10 	ldr.w	r3, [r0], #16
    2f7c:	4798      	blx	r3
    2f7e:	2800      	cmp	r0, #0
    2f80:	da04      	bge.n	2f8c <modbus_MasterReadRegisters+0x6c>
        modbus.sts = errMODBUS_TX;
    2f82:	f06f 037a 	mvn.w	r3, #122	; 0x7a
    2f86:	f8c4 3134 	str.w	r3, [r4, #308]	; 0x134
    2f8a:	e003      	b.n	2f94 <modbus_MasterReadRegisters+0x74>
        return pdFAIL;
	}

	// sinalisa que vamos esperar a resposta do escravo
	modbus.waitResponse = pdTRUE;
    2f8c:	2001      	movs	r0, #1
    2f8e:	f8c4 0118 	str.w	r0, [r4, #280]	; 0x118
	modbus_printf("modbusM: TX RR: ");
	int x; for (x=0;x<8;x++) modbus_printf("0x%x ", modbus.querie[x]);
	modbus_printf(CMD_TERMINATOR);
	#endif

    return pdPASS;
    2f92:	bdf8      	pop	{r3, r4, r5, r6, r7, pc}
//					errMODBUS_BUSY: Sinaliza que o gerenciador est no processo de comunicao com o escravo
//  				errMODBUS_XXXXX: Notificar ao sistema o tipo de erro e tomar procedimento cabveis
//						sistema deve consultar com a funo modbus_MasterReadStatus()
// -------------------------------------------------------------------------------------------------------------------
int modbus_MasterReadRegisters(int addrSlave, int addrInit, int len, u16* regs) {
	if (modbus.waitResponse) return pdFAIL;
    2f94:	2000      	movs	r0, #0
	int x; for (x=0;x<8;x++) modbus_printf("0x%x ", modbus.querie[x]);
	modbus_printf(CMD_TERMINATOR);
	#endif

    return pdPASS;
}
    2f96:	bdf8      	pop	{r3, r4, r5, r6, r7, pc}
    2f98:	10000a50 	.word	0x10000a50

Disassembly of section .text.modbus_MasterProcess:

00002f9c <modbus_MasterProcess>:

// -------------------------------------------------------------------------------------------------------------------
// FUNO:		modbus_MasterProcess
// Descrio: 	Processa as respostas do escravo mediante as requisiies de comandos
// -------------------------------------------------------------------------------------------------------------------
void modbus_MasterProcess(void) {
    2f9c:	b573      	push	{r0, r1, r4, r5, r6, lr}
	static int len = 0;
    static int firstByte = pdTRUE;

    u8 dat;

	if (!modbus.waitResponse) {
    2f9e:	4c62      	ldr	r4, [pc, #392]	; (3128 <modbus_MasterProcess+0x18c>)
    2fa0:	f8d4 3118 	ldr.w	r3, [r4, #280]	; 0x118
    2fa4:	b943      	cbnz	r3, 2fb8 <modbus_MasterProcess+0x1c>
		len = 0;
    2fa6:	4a61      	ldr	r2, [pc, #388]	; (312c <modbus_MasterProcess+0x190>)
    2fa8:	6013      	str	r3, [r2, #0]
		firstByte = pdTRUE;
    2faa:	4b61      	ldr	r3, [pc, #388]	; (3130 <modbus_MasterProcess+0x194>)
    2fac:	2201      	movs	r2, #1
    2fae:	601a      	str	r2, [r3, #0]
		modbus.tout = modbus.timeout;
    2fb0:	68e3      	ldr	r3, [r4, #12]
    2fb2:	f8c4 311c 	str.w	r3, [r4, #284]	; 0x11c
    2fb6:	e0b6      	b.n	3126 <modbus_MasterProcess+0x18a>
		return 0;
	}

    if (modbus.gc(&dat) == pdPASS) { 			// Checa se recebeu dados
    2fb8:	6863      	ldr	r3, [r4, #4]
    2fba:	f10d 0007 	add.w	r0, sp, #7
    2fbe:	4798      	blx	r3
    2fc0:	2801      	cmp	r0, #1
    2fc2:	d110      	bne.n	2fe6 <modbus_MasterProcess+0x4a>
        #if (MODBUSM_USE_DEBUG == pdON)
        modbus_printf("modbusM: getp dat 0x%x [%c] len %d"CMD_TERMINATOR, dat, dat, len);
        #endif

		firstByte = pdFALSE;                    // Sinaliza que no  o mais o primeiro byte
    2fc4:	4b5a      	ldr	r3, [pc, #360]	; (3130 <modbus_MasterProcess+0x194>)
    2fc6:	2200      	movs	r2, #0
    2fc8:	601a      	str	r2, [r3, #0]

    	if (len >= 256) return errMODBUS_BUFFER_OVERFLOW;
    2fca:	4a58      	ldr	r2, [pc, #352]	; (312c <modbus_MasterProcess+0x190>)
    2fcc:	6813      	ldr	r3, [r2, #0]
    2fce:	2bff      	cmp	r3, #255	; 0xff
    2fd0:	dc2d      	bgt.n	302e <modbus_MasterProcess+0x92>
        modbus.querie[len++] = dat;			// Adiciona o dado no buffer e aponta para o prximo indice do buffer
    2fd2:	18e1      	adds	r1, r4, r3
    2fd4:	f89d 0007 	ldrb.w	r0, [sp, #7]
    2fd8:	3301      	adds	r3, #1
    2fda:	6013      	str	r3, [r2, #0]
		modbus.timeDataIn = modbusTIME_DATE_IN;			// Tempo de espera de recebimento de dados do escravo
    2fdc:	23c8      	movs	r3, #200	; 0xc8
        #endif

		firstByte = pdFALSE;                    // Sinaliza que no  o mais o primeiro byte

    	if (len >= 256) return errMODBUS_BUFFER_OVERFLOW;
        modbus.querie[len++] = dat;			// Adiciona o dado no buffer e aponta para o prximo indice do buffer
    2fde:	7408      	strb	r0, [r1, #16]
		modbus.timeDataIn = modbusTIME_DATE_IN;			// Tempo de espera de recebimento de dados do escravo
    2fe0:	f8c4 3120 	str.w	r3, [r4, #288]	; 0x120
    2fe4:	e09f      	b.n	3126 <modbus_MasterProcess+0x18a>

 	// se no h mais bytes no buffer serial em um determinado tempo  porque  fim de transmisso
 		// valor 10 funciona bem entre 2400 a 115200 bps. Valor 5 funcionou bem com 57600 e 115200
        // para boudrate menores pode ser que devemos aumetar esse valor.
        // Recomendo fazer uma macro associado ao baudrate da serial
 	} else if (modbus.timeDataIn == 0) {
    2fe6:	f8d4 3120 	ldr.w	r3, [r4, #288]	; 0x120
    2fea:	2b00      	cmp	r3, #0
    2fec:	f040 809b 	bne.w	3126 <modbus_MasterProcess+0x18a>
        if (!firstByte) {
    2ff0:	4b4f      	ldr	r3, [pc, #316]	; (3130 <modbus_MasterProcess+0x194>)
    2ff2:	681b      	ldr	r3, [r3, #0]
    2ff4:	b9a3      	cbnz	r3, 3020 <modbus_MasterProcess+0x84>
        	if (len < 3) {
    2ff6:	4d4d      	ldr	r5, [pc, #308]	; (312c <modbus_MasterProcess+0x190>)
    2ff8:	6829      	ldr	r1, [r5, #0]
    2ffa:	2902      	cmp	r1, #2
    2ffc:	dd1a      	ble.n	3034 <modbus_MasterProcess+0x98>
        		return errMODBUS_LENPACKET;
        	}

            // Vamos pegar o pacote deste buffer e calcular e verificar a legitimidade
            // Calcular CRC do pacote e comparar
            u16 crc_calc = crc16_MODBUS(modbus.querie, len-2);
    2ffe:	f104 0010 	add.w	r0, r4, #16
    3002:	3902      	subs	r1, #2
    3004:	f7ff ff37 	bl	2e76 <crc16_MODBUS>
            u16 crc = (modbus.querie[len-1] << 8 ) | modbus.querie[len-2];
    3008:	682b      	ldr	r3, [r5, #0]
    300a:	18e4      	adds	r4, r4, r3
    300c:	7be2      	ldrb	r2, [r4, #15]
    300e:	7ba3      	ldrb	r3, [r4, #14]
            if (crc != crc_calc) {
    3010:	ea43 2302 	orr.w	r3, r3, r2, lsl #8
    3014:	4283      	cmp	r3, r0
		        #if (MODBUSM_USE_DEBUG == pdON)
        		modbus_printf("modbusM: err crc 0x%x calc 0x%x len %d"CMD_TERMINATOR, crc, crc_calc, len);
        		#endif

            	return errMODBUS_CRC;
    3016:	bf18      	it	ne
    3018:	f06f 0379 	mvnne.w	r3, #121	; 0x79

            // Vamos pegar o pacote deste buffer e calcular e verificar a legitimidade
            // Calcular CRC do pacote e comparar
            u16 crc_calc = crc16_MODBUS(modbus.querie, len-2);
            u16 crc = (modbus.querie[len-1] << 8 ) | modbus.querie[len-2];
            if (crc != crc_calc) {
    301c:	d10e      	bne.n	303c <modbus_MasterProcess+0xa0>
    301e:	e00c      	b.n	303a <modbus_MasterProcess+0x9e>

            	return errMODBUS_CRC;
            } else return pdPASS;

        // se ainda no recebemos o primeiro byte aps um tempo vamos cancelar
        } else if (modbus.tout == 0) {
    3020:	f8d4 311c 	ldr.w	r3, [r4, #284]	; 0x11c
    3024:	2b00      	cmp	r3, #0
    3026:	d17e      	bne.n	3126 <modbus_MasterProcess+0x18a>
			#if (MODBUSM_USE_DEBUG == pdON)
        	modbus_printf("modbusM: err timeout"CMD_TERMINATOR);
        	#endif

			return errMODBUS_TIMEOUT;
    3028:	f06f 037b 	mvn.w	r3, #123	; 0x7b
    302c:	e006      	b.n	303c <modbus_MasterProcess+0xa0>
        modbus_printf("modbusM: getp dat 0x%x [%c] len %d"CMD_TERMINATOR, dat, dat, len);
        #endif

		firstByte = pdFALSE;                    // Sinaliza que no  o mais o primeiro byte

    	if (len >= 256) return errMODBUS_BUFFER_OVERFLOW;
    302e:	f06f 037c 	mvn.w	r3, #124	; 0x7c
    3032:	e003      	b.n	303c <modbus_MasterProcess+0xa0>
        	if (len < 3) {
		        #if (MODBUSM_USE_DEBUG == pdON)
        		modbus_printf("modbusM: err len %d"CMD_TERMINATOR, len);
        		#endif

        		return errMODBUS_LENPACKET;
    3034:	f06f 037d 	mvn.w	r3, #125	; 0x7d
    3038:	e000      	b.n	303c <modbus_MasterProcess+0xa0>
		        #if (MODBUSM_USE_DEBUG == pdON)
        		modbus_printf("modbusM: err crc 0x%x calc 0x%x len %d"CMD_TERMINATOR, crc, crc_calc, len);
        		#endif

            	return errMODBUS_CRC;
            } else return pdPASS;
    303a:	2301      	movs	r3, #1
    303c:	2b00      	cmp	r3, #0
    303e:	4c3a      	ldr	r4, [pc, #232]	; (3128 <modbus_MasterProcess+0x18c>)
		//  	errMODBUS_LENPACKET
		//  	errMODBUS_CRC
		//  	errMODBUS_TIMEOUT

	if (ret == 0 ) return;
   	if (ret < 0 ) {
    3040:	da05      	bge.n	304e <modbus_MasterProcess+0xb2>
   		modbus.sts = ret; 				// salva o erro
    3042:	f8c4 3134 	str.w	r3, [r4, #308]	; 0x134
   		modbus.waitResponse = pdFALSE; 	// sinaliza que no estamos esperando pela resposta do escravo
    3046:	2300      	movs	r3, #0
    3048:	f8c4 3118 	str.w	r3, [r4, #280]	; 0x118
    304c:	e06b      	b.n	3126 <modbus_MasterProcess+0x18a>
	} else {
		if (modbus.cmd == 3) 		modbus.sts = ProcessCmd3();	// retorna	pdPASS errMODBUS_ID	errMODBUS_CMD errMODBUS_EXCEPTION errMODBUS_LEN
    304e:	f8d4 3114 	ldr.w	r3, [r4, #276]	; 0x114
    3052:	2b03      	cmp	r3, #3
    3054:	d129      	bne.n	30aa <modbus_MasterProcess+0x10e>
//				errMODBUS_EXCEPTION: Sinaliza que o escravo enviou uma exceo, consultar status
//				errMODBUS_LEN: O tamanho do pacote recebido do escravo no confere ao esperado
// -------------------------------------------------------------------------------------------------------------------
static int ProcessCmd3(void) {
   	// Checa se este pacote  mesmo do escravo solicitado
   	int ret = ValidatePacket(); // retorna pdPASS	errMODBUS_ID	errMODBUS_CMD errMODBUS_EXCEPTION
    3056:	f7ff ff15 	bl	2e84 <ValidatePacket>
   	if (ret != pdPASS ) return ret;
    305a:	2801      	cmp	r0, #1
    305c:	d160      	bne.n	3120 <modbus_MasterProcess+0x184>
	modbus.cmd = 0; // sinaliza que no estamos mais operando nenhum comando
  	modbus.waitResponse = pdFALSE; // sinaliza que no estamos esperando pela resposta do escravo

	// captura a quantidade de bytes recebidos
   	int countBytes = modbus.querie[2];
   	if (2*modbus.len != countBytes) return errMODBUS_LEN;
    305e:	f8d4 2128 	ldr.w	r2, [r4, #296]	; 0x128

	modbus.cmd = 0; // sinaliza que no estamos mais operando nenhum comando
  	modbus.waitResponse = pdFALSE; // sinaliza que no estamos esperando pela resposta do escravo

	// captura a quantidade de bytes recebidos
   	int countBytes = modbus.querie[2];
    3062:	7ca1      	ldrb	r1, [r4, #18]
static int ProcessCmd3(void) {
   	// Checa se este pacote  mesmo do escravo solicitado
   	int ret = ValidatePacket(); // retorna pdPASS	errMODBUS_ID	errMODBUS_CMD errMODBUS_EXCEPTION
   	if (ret != pdPASS ) return ret;

	modbus.cmd = 0; // sinaliza que no estamos mais operando nenhum comando
    3064:	2300      	movs	r3, #0
  	modbus.waitResponse = pdFALSE; // sinaliza que no estamos esperando pela resposta do escravo

	// captura a quantidade de bytes recebidos
   	int countBytes = modbus.querie[2];
   	if (2*modbus.len != countBytes) return errMODBUS_LEN;
    3066:	ebb1 0f42 	cmp.w	r1, r2, lsl #1
static int ProcessCmd3(void) {
   	// Checa se este pacote  mesmo do escravo solicitado
   	int ret = ValidatePacket(); // retorna pdPASS	errMODBUS_ID	errMODBUS_CMD errMODBUS_EXCEPTION
   	if (ret != pdPASS ) return ret;

	modbus.cmd = 0; // sinaliza que no estamos mais operando nenhum comando
    306a:	f8c4 3114 	str.w	r3, [r4, #276]	; 0x114
  	modbus.waitResponse = pdFALSE; // sinaliza que no estamos esperando pela resposta do escravo
    306e:	f8c4 3118 	str.w	r3, [r4, #280]	; 0x118

	// captura a quantidade de bytes recebidos
   	int countBytes = modbus.querie[2];
   	if (2*modbus.len != countBytes) return errMODBUS_LEN;
    3072:	d117      	bne.n	30a4 <modbus_MasterProcess+0x108>
    3074:	f8d4 1124 	ldr.w	r1, [r4, #292]	; 0x124
    3078:	3413      	adds	r4, #19
    307a:	e008      	b.n	308e <modbus_MasterProcess+0xf2>

	// Tirar os valores dos registradores do bufferin para o buffer da aplicao
   	int x; for(x=0; x<modbus.len;x++)
       	*modbus.regs++ = (modbus.querie[2*x+3] << 8) | (modbus.querie[2*x+4]);
    307c:	f814 6c02 	ldrb.w	r6, [r4, #-2]
    3080:	f814 5c01 	ldrb.w	r5, [r4, #-1]
    3084:	ea45 2506 	orr.w	r5, r5, r6, lsl #8
    3088:	f821 5013 	strh.w	r5, [r1, r3, lsl #1]
	// captura a quantidade de bytes recebidos
   	int countBytes = modbus.querie[2];
   	if (2*modbus.len != countBytes) return errMODBUS_LEN;

	// Tirar os valores dos registradores do bufferin para o buffer da aplicao
   	int x; for(x=0; x<modbus.len;x++)
    308c:	3301      	adds	r3, #1
    308e:	3402      	adds	r4, #2
    3090:	4293      	cmp	r3, r2
    3092:	dbf3      	blt.n	307c <modbus_MasterProcess+0xe0>

// -------------------------------------------------------------------------------------------------------------------
// FUNO:		modbus_MasterProcess
// Descrio: 	Processa as respostas do escravo mediante as requisiies de comandos
// -------------------------------------------------------------------------------------------------------------------
void modbus_MasterProcess(void) {
    3094:	ea22 72e2 	bic.w	r2, r2, r2, asr #31
    3098:	4b23      	ldr	r3, [pc, #140]	; (3128 <modbus_MasterProcess+0x18c>)
    309a:	eb01 0142 	add.w	r1, r1, r2, lsl #1
    309e:	f8c3 1124 	str.w	r1, [r3, #292]	; 0x124
    30a2:	e03d      	b.n	3120 <modbus_MasterProcess+0x184>
	modbus.cmd = 0; // sinaliza que no estamos mais operando nenhum comando
  	modbus.waitResponse = pdFALSE; // sinaliza que no estamos esperando pela resposta do escravo

	// captura a quantidade de bytes recebidos
   	int countBytes = modbus.querie[2];
   	if (2*modbus.len != countBytes) return errMODBUS_LEN;
    30a4:	f06f 0082 	mvn.w	r0, #130	; 0x82
    30a8:	e03a      	b.n	3120 <modbus_MasterProcess+0x184>
   	if (ret < 0 ) {
   		modbus.sts = ret; 				// salva o erro
   		modbus.waitResponse = pdFALSE; 	// sinaliza que no estamos esperando pela resposta do escravo
	} else {
		if (modbus.cmd == 3) 		modbus.sts = ProcessCmd3();	// retorna	pdPASS errMODBUS_ID	errMODBUS_CMD errMODBUS_EXCEPTION errMODBUS_LEN
		else if (modbus.cmd == 6) 	modbus.sts = ProcessCmd6();	// retorna	pdPASS errMODBUS_ID	errMODBUS_CMD errMODBUS_EXCEPTION errMODBUS_ADDR errMODBUS_VALUE
    30aa:	2b06      	cmp	r3, #6
    30ac:	d117      	bne.n	30de <modbus_MasterProcess+0x142>
//				errMODBUS_EXCEPTION: Sinaliza que o escravo enviou uma exceo, consultar status
//				errMODBUS_LEN: O tamanho do pacote recebido do escravo no confere ao esperado
// -------------------------------------------------------------------------------------------------------------------
static int ProcessCmd6(void) {
   	// Checa se este pacote  mesmo do escravo solicitado
   	int ret = ValidatePacket(); // retorna pdPASS	errMODBUS_ID	errMODBUS_CMD errMODBUS_EXCEPTION
    30ae:	f7ff fee9 	bl	2e84 <ValidatePacket>
   	if (ret != pdPASS ) return ret;
    30b2:	2801      	cmp	r0, #1
    30b4:	d134      	bne.n	3120 <modbus_MasterProcess+0x184>

	modbus.cmd = 0; // sinaliza que no estamos mais operando nenhum comando
    30b6:	2300      	movs	r3, #0
    30b8:	f8c4 3114 	str.w	r3, [r4, #276]	; 0x114
  	modbus.waitResponse = pdFALSE; // sinaliza que no estamos esperando pela resposta do escravo
    30bc:	f8c4 3118 	str.w	r3, [r4, #280]	; 0x118

	// compara endereo do registrador
    int addrComp = (modbus.querie[2] << 8) | (modbus.querie[3]);
    30c0:	7ca2      	ldrb	r2, [r4, #18]
    30c2:	7ce3      	ldrb	r3, [r4, #19]
    30c4:	ea43 2202 	orr.w	r2, r3, r2, lsl #8
    if (modbus.addr != addrComp)  return errMODBUS_ADDR;
    30c8:	f8d4 312c 	ldr.w	r3, [r4, #300]	; 0x12c
    30cc:	4293      	cmp	r3, r2
    30ce:	d125      	bne.n	311c <modbus_MasterProcess+0x180>

    // compara valor do registrador
    u16 valueComp = (modbus.querie[4] << 8) | (modbus.querie[5]);
    30d0:	7d21      	ldrb	r1, [r4, #20]
    30d2:	7d63      	ldrb	r3, [r4, #21]
    if (modbus.value != valueComp) return errMODBUS_VALUE;
    30d4:	f8b4 2130 	ldrh.w	r2, [r4, #304]	; 0x130
    30d8:	ea43 2301 	orr.w	r3, r3, r1, lsl #8
    30dc:	e018      	b.n	3110 <modbus_MasterProcess+0x174>
   		modbus.sts = ret; 				// salva o erro
   		modbus.waitResponse = pdFALSE; 	// sinaliza que no estamos esperando pela resposta do escravo
	} else {
		if (modbus.cmd == 3) 		modbus.sts = ProcessCmd3();	// retorna	pdPASS errMODBUS_ID	errMODBUS_CMD errMODBUS_EXCEPTION errMODBUS_LEN
		else if (modbus.cmd == 6) 	modbus.sts = ProcessCmd6();	// retorna	pdPASS errMODBUS_ID	errMODBUS_CMD errMODBUS_EXCEPTION errMODBUS_ADDR errMODBUS_VALUE
		else if (modbus.cmd == 16) 	modbus.sts = ProcessCmd16();// retorna	pdPASS errMODBUS_ID	errMODBUS_CMD errMODBUS_EXCEPTION errMODBUS_ADDR errMODBUS_VALUE
    30de:	2b10      	cmp	r3, #16
    30e0:	d121      	bne.n	3126 <modbus_MasterProcess+0x18a>
//				errMODBUS_EXCEPTION: Sinaliza que o escravo enviou uma exceo, consultar status
//				errMODBUS_LEN: O tamanho do pacote recebido do escravo no confere ao esperado
// -------------------------------------------------------------------------------------------------------------------
static int ProcessCmd16(void) {
   	// Checa se este pacote  mesmo do escravo solicitado
   	int ret = ValidatePacket(); // retorna pdPASS	errMODBUS_ID	errMODBUS_CMD errMODBUS_EXCEPTION
    30e2:	f7ff fecf 	bl	2e84 <ValidatePacket>
   	if (ret != pdPASS ) return ret;
    30e6:	2801      	cmp	r0, #1
    30e8:	d11a      	bne.n	3120 <modbus_MasterProcess+0x184>

	modbus.cmd = 0; // sinaliza que no estamos mais operando nenhum comando
    30ea:	2300      	movs	r3, #0
    30ec:	f8c4 3114 	str.w	r3, [r4, #276]	; 0x114
  	modbus.waitResponse = pdFALSE; // sinaliza que no estamos esperando pela resposta do escravo
    30f0:	f8c4 3118 	str.w	r3, [r4, #280]	; 0x118

	// compara endereo do registrador
    int cmp = (modbus.querie[2] << 8) | (modbus.querie[3]);
    30f4:	7ca2      	ldrb	r2, [r4, #18]
    30f6:	7ce3      	ldrb	r3, [r4, #19]
    30f8:	ea43 2202 	orr.w	r2, r3, r2, lsl #8
    if (modbus.addr != cmp)  return errMODBUS_ADDR;
    30fc:	f8d4 312c 	ldr.w	r3, [r4, #300]	; 0x12c
    3100:	4293      	cmp	r3, r2
    3102:	d10b      	bne.n	311c <modbus_MasterProcess+0x180>

    // compara a quantidade
    cmp = (modbus.querie[4] << 8) | (modbus.querie[5]);
    3104:	7d22      	ldrb	r2, [r4, #20]
    3106:	7d63      	ldrb	r3, [r4, #21]
    3108:	ea43 2302 	orr.w	r3, r3, r2, lsl #8
    if (modbus.len != cmp) return errMODBUS_VALUE;
    310c:	f8d4 2128 	ldr.w	r2, [r4, #296]	; 0x128
    3110:	429a      	cmp	r2, r3
    3112:	bf0c      	ite	eq
    3114:	2001      	moveq	r0, #1
    3116:	f06f 0083 	mvnne.w	r0, #131	; 0x83
    311a:	e001      	b.n	3120 <modbus_MasterProcess+0x184>
	modbus.cmd = 0; // sinaliza que no estamos mais operando nenhum comando
  	modbus.waitResponse = pdFALSE; // sinaliza que no estamos esperando pela resposta do escravo

	// compara endereo do registrador
    int cmp = (modbus.querie[2] << 8) | (modbus.querie[3]);
    if (modbus.addr != cmp)  return errMODBUS_ADDR;
    311c:	f06f 007f 	mvn.w	r0, #127	; 0x7f
   		modbus.sts = ret; 				// salva o erro
   		modbus.waitResponse = pdFALSE; 	// sinaliza que no estamos esperando pela resposta do escravo
	} else {
		if (modbus.cmd == 3) 		modbus.sts = ProcessCmd3();	// retorna	pdPASS errMODBUS_ID	errMODBUS_CMD errMODBUS_EXCEPTION errMODBUS_LEN
		else if (modbus.cmd == 6) 	modbus.sts = ProcessCmd6();	// retorna	pdPASS errMODBUS_ID	errMODBUS_CMD errMODBUS_EXCEPTION errMODBUS_ADDR errMODBUS_VALUE
		else if (modbus.cmd == 16) 	modbus.sts = ProcessCmd16();// retorna	pdPASS errMODBUS_ID	errMODBUS_CMD errMODBUS_EXCEPTION errMODBUS_ADDR errMODBUS_VALUE
    3120:	4b01      	ldr	r3, [pc, #4]	; (3128 <modbus_MasterProcess+0x18c>)
    3122:	f8c3 0134 	str.w	r0, [r3, #308]	; 0x134
	}
}
    3126:	bd7c      	pop	{r2, r3, r4, r5, r6, pc}
    3128:	10000a50 	.word	0x10000a50
    312c:	10000a4c 	.word	0x10000a4c
    3130:	10000008 	.word	0x10000008

Disassembly of section .text.modbus_MasterTick:

00003134 <modbus_MasterTick>:

//-----------------------------------------------------------------------------------------------------------------------
// Esta funo deve ser chamada a cada 1ms
//-----------------------------------------------------------------------------------------------------------------------
void modbus_MasterTick(void) {
	if (modbus.tout) modbus.tout--;
    3134:	4b09      	ldr	r3, [pc, #36]	; (315c <modbus_MasterTick+0x28>)
    3136:	f8d3 211c 	ldr.w	r2, [r3, #284]	; 0x11c
    313a:	b122      	cbz	r2, 3146 <modbus_MasterTick+0x12>
    313c:	f8d3 211c 	ldr.w	r2, [r3, #284]	; 0x11c
    3140:	3a01      	subs	r2, #1
    3142:	f8c3 211c 	str.w	r2, [r3, #284]	; 0x11c
	if (modbus.timeDataIn) modbus.timeDataIn--;
    3146:	f8d3 3120 	ldr.w	r3, [r3, #288]	; 0x120
    314a:	4a04      	ldr	r2, [pc, #16]	; (315c <modbus_MasterTick+0x28>)
    314c:	b123      	cbz	r3, 3158 <modbus_MasterTick+0x24>
    314e:	f8d2 3120 	ldr.w	r3, [r2, #288]	; 0x120
    3152:	3b01      	subs	r3, #1
    3154:	f8c2 3120 	str.w	r3, [r2, #288]	; 0x120
    3158:	4770      	bx	lr
    315a:	bf00      	nop
    315c:	10000a50 	.word	0x10000a50

Disassembly of section .text.modbus_SendPacketException:

00003160 <modbus_SendPacketException>:
// FUNO:		modbus_SendPacketException
// Descrio: 	Envia uma mensagem de exceo para o mestre
// Parametros:	exception: Cdigo da exceo
// Retorna:		Nada
// -------------------------------------------------------------------------------------------------------------------
static void modbus_SendPacketException(int exception) {
    3160:	b538      	push	{r3, r4, r5, lr}
	modbus.query[0] = modbus.slaveID;
    3162:	4c0b      	ldr	r4, [pc, #44]	; (3190 <modbus_SendPacketException+0x30>)
	modbus.query[1] = 0x80 + modbus.cmd;
	modbus.query[2] = exception;
	uint crc = crc16_MODBUS(modbus.query, 3);
    3164:	2103      	movs	r1, #3
// Descrio: 	Envia uma mensagem de exceo para o mestre
// Parametros:	exception: Cdigo da exceo
// Retorna:		Nada
// -------------------------------------------------------------------------------------------------------------------
static void modbus_SendPacketException(int exception) {
	modbus.query[0] = modbus.slaveID;
    3166:	6823      	ldr	r3, [r4, #0]
	modbus.query[1] = 0x80 + modbus.cmd;
	modbus.query[2] = exception;
	uint crc = crc16_MODBUS(modbus.query, 3);
    3168:	f104 0518 	add.w	r5, r4, #24
// Descrio: 	Envia uma mensagem de exceo para o mestre
// Parametros:	exception: Cdigo da exceo
// Retorna:		Nada
// -------------------------------------------------------------------------------------------------------------------
static void modbus_SendPacketException(int exception) {
	modbus.query[0] = modbus.slaveID;
    316c:	7623      	strb	r3, [r4, #24]
	modbus.query[1] = 0x80 + modbus.cmd;
    316e:	f8d4 3118 	ldr.w	r3, [r4, #280]	; 0x118
	modbus.query[2] = exception;
    3172:	76a0      	strb	r0, [r4, #26]
// Parametros:	exception: Cdigo da exceo
// Retorna:		Nada
// -------------------------------------------------------------------------------------------------------------------
static void modbus_SendPacketException(int exception) {
	modbus.query[0] = modbus.slaveID;
	modbus.query[1] = 0x80 + modbus.cmd;
    3174:	3b80      	subs	r3, #128	; 0x80
	modbus.query[2] = exception;
	uint crc = crc16_MODBUS(modbus.query, 3);
    3176:	4628      	mov	r0, r5
// Parametros:	exception: Cdigo da exceo
// Retorna:		Nada
// -------------------------------------------------------------------------------------------------------------------
static void modbus_SendPacketException(int exception) {
	modbus.query[0] = modbus.slaveID;
	modbus.query[1] = 0x80 + modbus.cmd;
    3178:	7663      	strb	r3, [r4, #25]
	modbus.query[2] = exception;
	uint crc = crc16_MODBUS(modbus.query, 3);
    317a:	f7ff fe7c 	bl	2e76 <crc16_MODBUS>
	modbus.query[3] = (u8)(crc&0xFF);
    317e:	76e0      	strb	r0, [r4, #27]
	modbus.query[4] = (u8)(crc>>8);
    3180:	0a00      	lsrs	r0, r0, #8
    3182:	7720      	strb	r0, [r4, #28]

	modbus.puts(modbus.query, 5);
    3184:	6863      	ldr	r3, [r4, #4]
    3186:	4628      	mov	r0, r5
    3188:	2105      	movs	r1, #5
    318a:	4798      	blx	r3
    318c:	bd38      	pop	{r3, r4, r5, pc}
    318e:	bf00      	nop
    3190:	10000b8c 	.word	0x10000b8c

Disassembly of section .text.modbus_SlaveInit:

00003194 <modbus_SlaveInit>:
	int slaveID,
	int(*puts_func)(u8* buffer, u16 count),
	int(*getc_func)(u8* ch),
	int(*byte_available_func)(void),
	void(*flushRX_func)(void)
) {
    3194:	b510      	push	{r4, lr}

	modbus.slaveID = slaveID;
    3196:	4c08      	ldr	r4, [pc, #32]	; (31b8 <modbus_SlaveInit+0x24>)
	modbus.puts = puts_func;
	modbus.getc = getc_func;
	modbus.byteAvailable = byte_available_func;
    3198:	e884 000f 	stmia.w	r4, {r0, r1, r2, r3}
	modbus.flushRX = flushRX_func;
    319c:	9b02      	ldr	r3, [sp, #8]
    319e:	6123      	str	r3, [r4, #16]
	modbus.lastLenBuffer = 0;
    31a0:	2300      	movs	r3, #0
    31a2:	f8c4 311c 	str.w	r3, [r4, #284]	; 0x11c
	modbus.timeout = 0;
    31a6:	6163      	str	r3, [r4, #20]

	modbus.read_regs = NULL;
    31a8:	f8c4 3120 	str.w	r3, [r4, #288]	; 0x120
	modbus.write_reg = NULL;
    31ac:	f8c4 3124 	str.w	r3, [r4, #292]	; 0x124
	modbus.write_regs = NULL;
    31b0:	f8c4 3128 	str.w	r3, [r4, #296]	; 0x128
    31b4:	bd10      	pop	{r4, pc}
    31b6:	bf00      	nop
    31b8:	10000b8c 	.word	0x10000b8c

Disassembly of section .text.modbus_SlaveAppendFunctions:

000031bc <modbus_SlaveAppendFunctions>:
void modbus_SlaveAppendFunctions(
	int (*readregs_func)(uint addrInit, u8* query, uint count),
	int (*writereg_func)(uint addr, u16 value),
	int (*writeregs_func)(uint addrInit, u8* query, uint count)
) {
	modbus.read_regs = readregs_func;
    31bc:	4b03      	ldr	r3, [pc, #12]	; (31cc <modbus_SlaveAppendFunctions+0x10>)
    31be:	f8c3 0120 	str.w	r0, [r3, #288]	; 0x120
	modbus.write_reg = writereg_func;
    31c2:	f8c3 1124 	str.w	r1, [r3, #292]	; 0x124
	modbus.write_regs = writeregs_func;
    31c6:	f8c3 2128 	str.w	r2, [r3, #296]	; 0x128
    31ca:	4770      	bx	lr
    31cc:	10000b8c 	.word	0x10000b8c

Disassembly of section .text.modbus_SlaveProcess:

000031d0 <modbus_SlaveProcess>:
// -------------------------------------------------------------------------------------------------------------------
// exemplos de pacotes
// 		len	  	 0    1    2	3    4    5    6    7
// 			 	0x01 0x03 0x00 0x00 0x00 0x02 0xC4 0x0B 	lendo dois regs no device 1 addr 2
//				0x04 0x03 0x00 0x0F 0x00 0x02 0xF4 0x5D		lendo dois regs no device 4 addr 2
int modbus_SlaveProcess(void) {
    31d0:	b573      	push	{r0, r1, r4, r5, r6, lr}
   	int len = modbus.byteAvailable();
    31d2:	4c56      	ldr	r4, [pc, #344]	; (332c <modbus_SlaveProcess+0x15c>)
    31d4:	68e3      	ldr	r3, [r4, #12]
    31d6:	4798      	blx	r3

   	// se no h nada no buffer no fazemos nada
    if ( len == 0 ) {
    31d8:	b910      	cbnz	r0, 31e0 <modbus_SlaveProcess+0x10>
    	modbus.lastLenBuffer = 0;
    31da:	f8c4 011c 	str.w	r0, [r4, #284]	; 0x11c
        return pdFAIL;
    31de:	e0a4      	b.n	332a <modbus_SlaveProcess+0x15a>
    }

    // reinicia o timeout caso o buffer de recepo vai aumentando
    // se estourar o buffer o driver serial se encarrega disso, e neste caso no processamos nada
    // mesmo com o buffer cheio com dados lixo os dados sero todos processados e o CRC no vai bater e tudo ser descartado
    if (modbus.lastLenBuffer != len) {
    31e0:	f8d4 311c 	ldr.w	r3, [r4, #284]	; 0x11c
    31e4:	4283      	cmp	r3, r0
    31e6:	d004      	beq.n	31f2 <modbus_SlaveProcess+0x22>
    	modbus.lastLenBuffer = len;
        modbus.timeout = 100; // valor 10 funciona bem entre 2400 a 115200 bps. Valor 5 funcionou bem com 57600 e 115200
    31e8:	2364      	movs	r3, #100	; 0x64

    // reinicia o timeout caso o buffer de recepo vai aumentando
    // se estourar o buffer o driver serial se encarrega disso, e neste caso no processamos nada
    // mesmo com o buffer cheio com dados lixo os dados sero todos processados e o CRC no vai bater e tudo ser descartado
    if (modbus.lastLenBuffer != len) {
    	modbus.lastLenBuffer = len;
    31ea:	f8c4 011c 	str.w	r0, [r4, #284]	; 0x11c
        modbus.timeout = 100; // valor 10 funciona bem entre 2400 a 115200 bps. Valor 5 funcionou bem com 57600 e 115200
    31ee:	6163      	str	r3, [r4, #20]
    31f0:	e09a      	b.n	3328 <modbus_SlaveProcess+0x158>
        									// Recomendo fazer uma macro associado ao boudrate da serial
        return pdFAIL;
    }

    // somente vamos processar quando estourar o timeout de recepo
    if (modbus.timeout) return pdFAIL;
    31f2:	6965      	ldr	r5, [r4, #20]
    31f4:	2d00      	cmp	r5, #0
    31f6:	f040 8097 	bne.w	3328 <modbus_SlaveProcess+0x158>

   	// processando o pacote
   	modbus.lastLenBuffer = 0;
    31fa:	f8c4 511c 	str.w	r5, [r4, #284]	; 0x11c
	// fao enquanto h dados no buffer de recepo
	#if (MODBUS_USE_DEBUG == pdON)
	plognp("MODBUS: GET PACKET: ");
	#endif

	while (modbus.getc(&ch) == pdPASS) {
    31fe:	4626      	mov	r6, r4
    3200:	e007      	b.n	3212 <modbus_SlaveProcess+0x42>
		if (len > 255) return errMODBUS_BUFRX_OVERFLOW;
    3202:	f5b5 7f80 	cmp.w	r5, #256	; 0x100
    3206:	d021      	beq.n	324c <modbus_SlaveProcess+0x7c>
		query[len++] = ch;
    3208:	f89d 2007 	ldrb.w	r2, [sp, #7]
// -------------------------------------------------------------------------------------------------------------------
// exemplos de pacotes
// 		len	  	 0    1    2	3    4    5    6    7
// 			 	0x01 0x03 0x00 0x00 0x00 0x02 0xC4 0x0B 	lendo dois regs no device 1 addr 2
//				0x04 0x03 0x00 0x0F 0x00 0x02 0xF4 0x5D		lendo dois regs no device 4 addr 2
int modbus_SlaveProcess(void) {
    320c:	1973      	adds	r3, r6, r5
	plognp("MODBUS: GET PACKET: ");
	#endif

	while (modbus.getc(&ch) == pdPASS) {
		if (len > 255) return errMODBUS_BUFRX_OVERFLOW;
		query[len++] = ch;
    320e:	761a      	strb	r2, [r3, #24]
    3210:	3501      	adds	r5, #1
	// fao enquanto h dados no buffer de recepo
	#if (MODBUS_USE_DEBUG == pdON)
	plognp("MODBUS: GET PACKET: ");
	#endif

	while (modbus.getc(&ch) == pdPASS) {
    3212:	68b3      	ldr	r3, [r6, #8]
    3214:	f10d 0007 	add.w	r0, sp, #7
    3218:	4798      	blx	r3
    321a:	2801      	cmp	r0, #1
    321c:	4c43      	ldr	r4, [pc, #268]	; (332c <modbus_SlaveProcess+0x15c>)
    321e:	d0f0      	beq.n	3202 <modbus_SlaveProcess+0x32>
		plognp("0x%x ", ch);
		#endif
	}

	// o menor pacote  de 4 bytes
	if (len < 4) {
    3220:	2d03      	cmp	r5, #3
    3222:	dd13      	ble.n	324c <modbus_SlaveProcess+0x7c>

		return errMODBUS_BUFRX_INCOMPLETE;
	}

	// processar CRC
	len-=2; // desconsidera o CRC
    3224:	3d02      	subs	r5, #2
	uint crc = crc16_MODBUS(query, len);
    3226:	f104 0018 	add.w	r0, r4, #24
    322a:	4629      	mov	r1, r5
    322c:	f7ff fe23 	bl	2e76 <crc16_MODBUS>
	uint crc_rx = ( query[len+1] << 8) | (query[len]);
    3230:	1963      	adds	r3, r4, r5
    3232:	7e5a      	ldrb	r2, [r3, #25]
    3234:	7e1b      	ldrb	r3, [r3, #24]
    3236:	ea43 2302 	orr.w	r3, r3, r2, lsl #8
    int db_x; for(db_x=0;db_x<len;db_x++) plognp("0x%x ", query[db_x]);
    plognp(CMD_TERMINATOR);
    plognp("MODBUS: crc 0x%x == 0x%x"CMD_TERMINATOR, crc_rx, crc);
    #endif

	if (crc != crc_rx) return errMODBUS_CRC;
    323a:	4298      	cmp	r0, r3
    323c:	d106      	bne.n	324c <modbus_SlaveProcess+0x7c>

	len = modbus_GetPacket(modbus.query);

    // se houve erro de CRC ou overflow do buffer, ou o endereo na mensagem  para este dispositivo
    // o menor pacote  4 bytes (1 byte ID, 1 byte funo e 2 bytes CRC), porm no modbus.query no vai conter CRC
    if ( (len < 1) || (modbus.query[0] != modbus.slaveID) ) {
    323e:	2d00      	cmp	r5, #0
    3240:	dd04      	ble.n	324c <modbus_SlaveProcess+0x7c>
    3242:	7e22      	ldrb	r2, [r4, #24]
    3244:	6823      	ldr	r3, [r4, #0]
    3246:	4625      	mov	r5, r4
    3248:	429a      	cmp	r2, r3
    324a:	d003      	beq.n	3254 <modbus_SlaveProcess+0x84>
	    #if (MODBUS_USE_DEBUG == pdON)
    	plognp("MODBUS: pck error"CMD_TERMINATOR);
    	#endif
		modbus.flushRX();
    324c:	4b37      	ldr	r3, [pc, #220]	; (332c <modbus_SlaveProcess+0x15c>)
    324e:	691b      	ldr	r3, [r3, #16]
    3250:	4798      	blx	r3
    3252:	e069      	b.n	3328 <modbus_SlaveProcess+0x158>
    };

	int ret;
	uint addrInit; // No podemos colocar a captura do addr aqui porque pode haver comandos simples

	modbus.cmd = modbus.query[1];
    3254:	7e63      	ldrb	r3, [r4, #25]

	// checa se a funo  de leitura dos registradores, processa caso h funo anexada
    if ( (modbus.cmd == modbusCMD_READ_REGISTERS) && (modbus.read_regs != NULL)) {
    3256:	2b03      	cmp	r3, #3
    };

	int ret;
	uint addrInit; // No podemos colocar a captura do addr aqui porque pode haver comandos simples

	modbus.cmd = modbus.query[1];
    3258:	f8c4 3118 	str.w	r3, [r4, #280]	; 0x118

	// checa se a funo  de leitura dos registradores, processa caso h funo anexada
    if ( (modbus.cmd == modbusCMD_READ_REGISTERS) && (modbus.read_regs != NULL)) {
    325c:	d127      	bne.n	32ae <modbus_SlaveProcess+0xde>
    325e:	f8d4 3120 	ldr.w	r3, [r4, #288]	; 0x120
    3262:	2b00      	cmp	r3, #0
    3264:	d058      	beq.n	3318 <modbus_SlaveProcess+0x148>
		addrInit = ((uint) modbus.query[2] << 8) + (uint)modbus.query[3];
		len = ((int) modbus.query[4] << 8) + (int)modbus.query[5];
    3266:	7f62      	ldrb	r2, [r4, #29]
    3268:	7f25      	ldrb	r5, [r4, #28]

	modbus.cmd = modbus.query[1];

	// checa se a funo  de leitura dos registradores, processa caso h funo anexada
    if ( (modbus.cmd == modbusCMD_READ_REGISTERS) && (modbus.read_regs != NULL)) {
		addrInit = ((uint) modbus.query[2] << 8) + (uint)modbus.query[3];
    326a:	4621      	mov	r1, r4
		len = ((int) modbus.query[4] << 8) + (int)modbus.query[5];
    326c:	eb02 2505 	add.w	r5, r2, r5, lsl #8

	modbus.cmd = modbus.query[1];

	// checa se a funo  de leitura dos registradores, processa caso h funo anexada
    if ( (modbus.cmd == modbusCMD_READ_REGISTERS) && (modbus.read_regs != NULL)) {
		addrInit = ((uint) modbus.query[2] << 8) + (uint)modbus.query[3];
    3270:	7ea0      	ldrb	r0, [r4, #26]
    3272:	f811 2f1b 	ldrb.w	r2, [r1, #27]!
		len = ((int) modbus.query[4] << 8) + (int)modbus.query[5];

		// chamar a funo externa para capturar os dados
		// 	passo o endereo do buffer a partir do 4 byte, os tres primeiros so reservador para ID, funo e count para tx mais tarde
		ret = modbus.read_regs(addrInit, &modbus.query[3], len);
    3276:	eb02 2000 	add.w	r0, r2, r0, lsl #8
    327a:	462a      	mov	r2, r5
    327c:	4798      	blx	r3
		if (ret == modbusNO_ERROR)
    327e:	2800      	cmp	r0, #0
    3280:	d14b      	bne.n	331a <modbus_SlaveProcess+0x14a>
// Parametros:	query: Buffer j contendo os valores dos registradores
//				len: Quantidade de registradores de 16 bits
// Retorna:		Nada
// -------------------------------------------------------------------------------------------------------------------
static void modbus_SendPacketRegs(u8* query, int len) {
	query[0] = modbus.slaveID;
    3282:	6823      	ldr	r3, [r4, #0]
	query[1] = modbus.cmd;
	query[2] = (u8)(2*len);
    3284:	006d      	lsls	r5, r5, #1
// Parametros:	query: Buffer j contendo os valores dos registradores
//				len: Quantidade de registradores de 16 bits
// Retorna:		Nada
// -------------------------------------------------------------------------------------------------------------------
static void modbus_SendPacketRegs(u8* query, int len) {
	query[0] = modbus.slaveID;
    3286:	7623      	strb	r3, [r4, #24]
	query[1] = modbus.cmd;
    3288:	f8d4 3118 	ldr.w	r3, [r4, #280]	; 0x118
	query[2] = (u8)(2*len);
	uint crc = crc16_MODBUS(query, (2*len)+3);
    328c:	1ce9      	adds	r1, r5, #3
//				len: Quantidade de registradores de 16 bits
// Retorna:		Nada
// -------------------------------------------------------------------------------------------------------------------
static void modbus_SendPacketRegs(u8* query, int len) {
	query[0] = modbus.slaveID;
	query[1] = modbus.cmd;
    328e:	7663      	strb	r3, [r4, #25]
	query[2] = (u8)(2*len);
    3290:	76a5      	strb	r5, [r4, #26]
	uint crc = crc16_MODBUS(query, (2*len)+3);
    3292:	f104 0018 	add.w	r0, r4, #24
    3296:	f7ff fdee 	bl	2e76 <crc16_MODBUS>
	query[(2*len)+3] = (u8)(crc&0xFF);
    329a:	1963      	adds	r3, r4, r5
    329c:	76d8      	strb	r0, [r3, #27]
	query[(2*len)+4] = (u8)(crc>>8);
	modbus.puts(query, (2*len)+5);
    329e:	1d69      	adds	r1, r5, #5
	query[0] = modbus.slaveID;
	query[1] = modbus.cmd;
	query[2] = (u8)(2*len);
	uint crc = crc16_MODBUS(query, (2*len)+3);
	query[(2*len)+3] = (u8)(crc&0xFF);
	query[(2*len)+4] = (u8)(crc>>8);
    32a0:	0a00      	lsrs	r0, r0, #8
    32a2:	7718      	strb	r0, [r3, #28]
	modbus.puts(query, (2*len)+5);
    32a4:	b289      	uxth	r1, r1
    32a6:	6863      	ldr	r3, [r4, #4]
    32a8:	f104 0018 	add.w	r0, r4, #24
    32ac:	e014      	b.n	32d8 <modbus_SlaveProcess+0x108>
			modbus_SendPacketRegs(modbus.query, len); // Envia os valores dos registradores
		else
			modbus_SendPacketException(ret);

    // checa se a funo  de escrita no registrador, processa caso h funo anexada
    } else if ( (modbus.cmd == modbusCMD_WRITE_REGISTER) && (modbus.write_reg != NULL)) {
    32ae:	2b06      	cmp	r3, #6
    32b0:	d114      	bne.n	32dc <modbus_SlaveProcess+0x10c>
    32b2:	f8d4 3124 	ldr.w	r3, [r4, #292]	; 0x124
    32b6:	2b00      	cmp	r3, #0
    32b8:	d02e      	beq.n	3318 <modbus_SlaveProcess+0x148>
		// chamar a funo externa gravar o registrador
		addrInit = ((uint) modbus.query[2] << 8) + (uint)modbus.query[3];
		u16 data = ((u16) modbus.query[4] << 8) + (u16)modbus.query[5];
    32ba:	7f25      	ldrb	r5, [r4, #28]
    32bc:	7f61      	ldrb	r1, [r4, #29]
			modbus_SendPacketException(ret);

    // checa se a funo  de escrita no registrador, processa caso h funo anexada
    } else if ( (modbus.cmd == modbusCMD_WRITE_REGISTER) && (modbus.write_reg != NULL)) {
		// chamar a funo externa gravar o registrador
		addrInit = ((uint) modbus.query[2] << 8) + (uint)modbus.query[3];
    32be:	7ea0      	ldrb	r0, [r4, #26]
    32c0:	7ee2      	ldrb	r2, [r4, #27]
		u16 data = ((u16) modbus.query[4] << 8) + (u16)modbus.query[5];
    32c2:	eb01 2105 	add.w	r1, r1, r5, lsl #8
		ret = modbus.write_reg(addrInit, data);
    32c6:	eb02 2000 	add.w	r0, r2, r0, lsl #8
    32ca:	b289      	uxth	r1, r1
    32cc:	4798      	blx	r3
		if (ret == modbusNO_ERROR)
    32ce:	bb20      	cbnz	r0, 331a <modbus_SlaveProcess+0x14a>
			modbus.puts(modbus.query, 8); // retorna o eco do pedido sinalizando ao mestre que tudo ocorreu bem
    32d0:	6863      	ldr	r3, [r4, #4]
    32d2:	f104 0018 	add.w	r0, r4, #24
    32d6:	2108      	movs	r1, #8
    32d8:	4798      	blx	r3
    32da:	e020      	b.n	331e <modbus_SlaveProcess+0x14e>
		else
			modbus_SendPacketException(ret);

    // checa se a funo  de escrita nos registradores, processa caso h funo anexada
    } else if ( (modbus.cmd == modbusCMD_WRITE_REGISTERS) && (modbus.write_regs != NULL)) {
    32dc:	2b10      	cmp	r3, #16
    32de:	d11b      	bne.n	3318 <modbus_SlaveProcess+0x148>
    32e0:	f8d4 3128 	ldr.w	r3, [r4, #296]	; 0x128
    32e4:	b1c3      	cbz	r3, 3318 <modbus_SlaveProcess+0x148>
    	addrInit = ((uint) modbus.query[2] << 8) + (uint)modbus.query[3];
    32e6:	7ea0      	ldrb	r0, [r4, #26]
    32e8:	7ee1      	ldrb	r1, [r4, #27]
    	len = ((int) modbus.query[4] << 8) + (int)modbus.query[5];
    32ea:	7f6a      	ldrb	r2, [r5, #29]
    32ec:	7f24      	ldrb	r4, [r4, #28]
    32ee:	eb02 2204 	add.w	r2, r2, r4, lsl #8
		// se a quantidade de registradores no corresponde com a quantidade de bytes no buffer retorna erro
		if (2*len != modbus.query[6]) ret = modbusILLEGAL_FUNCTION;
    32f2:	7fac      	ldrb	r4, [r5, #30]
    32f4:	ebb4 0f42 	cmp.w	r4, r2, lsl #1
    32f8:	d10e      	bne.n	3318 <modbus_SlaveProcess+0x148>
		else
			// chamar a funo externa gravar nos registradores
			// 	passo o endereo do buffer a partir do 7 byte onde comea os dados
			ret = modbus.write_regs(addrInit, &modbus.query[7], len);
    32fa:	eb01 2000 	add.w	r0, r1, r0, lsl #8
    32fe:	490c      	ldr	r1, [pc, #48]	; (3330 <modbus_SlaveProcess+0x160>)
    3300:	4798      	blx	r3
		if (ret == modbusNO_ERROR) { // retorna o eco do pedido sinalizando ao mestre que tudo ocorreu bem
    3302:	b950      	cbnz	r0, 331a <modbus_SlaveProcess+0x14a>
			uint crc = crc16_MODBUS(modbus.query, 6);
    3304:	480b      	ldr	r0, [pc, #44]	; (3334 <modbus_SlaveProcess+0x164>)
    3306:	2106      	movs	r1, #6
    3308:	f7ff fdb5 	bl	2e76 <crc16_MODBUS>
			modbus.query[6] = (u8)(crc&0xFF);
    330c:	77a8      	strb	r0, [r5, #30]
			modbus.query[7] = (u8)(crc>>8);
    330e:	0a00      	lsrs	r0, r0, #8
    3310:	77e8      	strb	r0, [r5, #31]
			modbus.puts(modbus.query, 8);
    3312:	686b      	ldr	r3, [r5, #4]
    3314:	4807      	ldr	r0, [pc, #28]	; (3334 <modbus_SlaveProcess+0x164>)
    3316:	e7de      	b.n	32d6 <modbus_SlaveProcess+0x106>
		} else
			modbus_SendPacketException(ret);
	} else {
    	// envia uma mensagem de exceo ao mestre que este dispositivo no suporta tal funo
    	modbus_SendPacketException(modbusILLEGAL_FUNCTION);
    3318:	2001      	movs	r0, #1
    331a:	f7ff ff21 	bl	3160 <modbus_SendPacketException>
    }

	modbus.flushRX();
    331e:	4b03      	ldr	r3, [pc, #12]	; (332c <modbus_SlaveProcess+0x15c>)
    3320:	691b      	ldr	r3, [r3, #16]
    3322:	4798      	blx	r3
	return pdPASS;
    3324:	2001      	movs	r0, #1
    3326:	e000      	b.n	332a <modbus_SlaveProcess+0x15a>
        									// Recomendo fazer uma macro associado ao boudrate da serial
        return pdFAIL;
    }

    // somente vamos processar quando estourar o timeout de recepo
    if (modbus.timeout) return pdFAIL;
    3328:	2000      	movs	r0, #0
    	modbus_SendPacketException(modbusILLEGAL_FUNCTION);
    }

	modbus.flushRX();
	return pdPASS;
}
    332a:	bd7c      	pop	{r2, r3, r4, r5, r6, pc}
    332c:	10000b8c 	.word	0x10000b8c
    3330:	10000bab 	.word	0x10000bab
    3334:	10000ba4 	.word	0x10000ba4

Disassembly of section .text.modbus_SlaveTick:

00003338 <modbus_SlaveTick>:

//-----------------------------------------------------------------------------------------------------------------------
// Esta funo deve ser chamada a cada 1ms
//-----------------------------------------------------------------------------------------------------------------------
void modbus_SlaveTick(void) {
	if (modbus.timeout) modbus.timeout--;
    3338:	4b03      	ldr	r3, [pc, #12]	; (3348 <modbus_SlaveTick+0x10>)
    333a:	695a      	ldr	r2, [r3, #20]
    333c:	b112      	cbz	r2, 3344 <modbus_SlaveTick+0xc>
    333e:	695a      	ldr	r2, [r3, #20]
    3340:	3a01      	subs	r2, #1
    3342:	615a      	str	r2, [r3, #20]
    3344:	4770      	bx	lr
    3346:	bf00      	nop
    3348:	10000b8c 	.word	0x10000b8c

Disassembly of section .text.cli_GetLine:

0000334c <cli_GetLine>:
//				bufferLength: tamanho do buffer
//				*prompt: Prompt para ser exibido
// Retorna	:  A quantidade de dados processado no buffer
// -----------------------------------------------------------------------------------------------------------------
//  bufferLength includes the space reserved for the \0
int cli_GetLine (u8 *buffer, int bufferLength, const char *prompt) {
    334c:	b570      	push	{r4, r5, r6, lr}
  	if (initGet) { // Checa se  incio da entrada de comandos
    334e:	4d34      	ldr	r5, [pc, #208]	; (3420 <cli_GetLine+0xd4>)
//				bufferLength: tamanho do buffer
//				*prompt: Prompt para ser exibido
// Retorna	:  A quantidade de dados processado no buffer
// -----------------------------------------------------------------------------------------------------------------
//  bufferLength includes the space reserved for the \0
int cli_GetLine (u8 *buffer, int bufferLength, const char *prompt) {
    3350:	4604      	mov	r4, r0
  	if (initGet) { // Checa se  incio da entrada de comandos
    3352:	782b      	ldrb	r3, [r5, #0]
//				bufferLength: tamanho do buffer
//				*prompt: Prompt para ser exibido
// Retorna	:  A quantidade de dados processado no buffer
// -----------------------------------------------------------------------------------------------------------------
//  bufferLength includes the space reserved for the \0
int cli_GetLine (u8 *buffer, int bufferLength, const char *prompt) {
    3354:	460e      	mov	r6, r1
  	if (initGet) { // Checa se  incio da entrada de comandos
    3356:	b143      	cbz	r3, 336a <cli_GetLine+0x1e>
  		lprintf("%s", prompt);
    3358:	2001      	movs	r0, #1
    335a:	4932      	ldr	r1, [pc, #200]	; (3424 <cli_GetLine+0xd8>)
    335c:	f7ff fcb0 	bl	2cc0 <rprintf>
  	  	p = buffer;
    3360:	4b31      	ldr	r3, [pc, #196]	; (3428 <cli_GetLine+0xdc>)
    3362:	601c      	str	r4, [r3, #0]
  	  	*p = '\0';
    3364:	2300      	movs	r3, #0
    3366:	7023      	strb	r3, [r4, #0]
  	  	initGet = 0;
    3368:	702b      	strb	r3, [r5, #0]
  	}

  	//while (1) { // FOI RETIRADO PARA QUE NO FIQUE NO LOOP AT CHEGADA DO ENTER, PARA QUE OUTRAS FUNES SEJAM PROCESSADAS COMO UIP
    if (lgetchar(&c) == pdPASS) {
    336a:	4d30      	ldr	r5, [pc, #192]	; (342c <cli_GetLine+0xe0>)
    336c:	4628      	mov	r0, r5
    336e:	f7ff fc9f 	bl	2cb0 <lgetchar>
    3372:	2801      	cmp	r0, #1
    3374:	d152      	bne.n	341c <cli_GetLine+0xd0>
	  	switch (c) {
    3376:	782b      	ldrb	r3, [r5, #0]
    3378:	2b0d      	cmp	r3, #13
    337a:	d00b      	beq.n	3394 <cli_GetLine+0x48>
    337c:	d804      	bhi.n	3388 <cli_GetLine+0x3c>
    337e:	2b08      	cmp	r3, #8
    3380:	d014      	beq.n	33ac <cli_GetLine+0x60>
    3382:	2b0a      	cmp	r3, #10
    3384:	d133      	bne.n	33ee <cli_GetLine+0xa2>
    3386:	e005      	b.n	3394 <cli_GetLine+0x48>
    3388:	2b15      	cmp	r3, #21
    338a:	d025      	beq.n	33d8 <cli_GetLine+0x8c>
    338c:	d32f      	bcc.n	33ee <cli_GetLine+0xa2>
    338e:	2bfe      	cmp	r3, #254	; 0xfe
    3390:	d32d      	bcc.n	33ee <cli_GetLine+0xa2>
    3392:	e028      	b.n	33e6 <cli_GetLine+0x9a>
		case '\r' : // por causa da tecla enter do prompt no PROTEUS que envia \r
    	case '\n' : // estamos usando o finalizar de comandos "\n" ou "\r\n", logo  vamos podemos ignorar o "\r" e usar "\n"
    		lprintf(CMD_TERMINATOR);
    3394:	2001      	movs	r0, #1
    3396:	4926      	ldr	r1, [pc, #152]	; (3430 <cli_GetLine+0xe4>)
    3398:	f7ff fc92 	bl	2cc0 <rprintf>
    		initGet = 1;
    339c:	4b20      	ldr	r3, [pc, #128]	; (3420 <cli_GetLine+0xd4>)
    339e:	2201      	movs	r2, #1
    		return strlen ((char *) buffer);
    33a0:	4620      	mov	r0, r4
    if (lgetchar(&c) == pdPASS) {
	  	switch (c) {
		case '\r' : // por causa da tecla enter do prompt no PROTEUS que envia \r
    	case '\n' : // estamos usando o finalizar de comandos "\n" ou "\r\n", logo  vamos podemos ignorar o "\r" e usar "\n"
    		lprintf(CMD_TERMINATOR);
    		initGet = 1;
    33a2:	701a      	strb	r2, [r3, #0]
      	}
    }
  	//}

  	return 0;
}
    33a4:	e8bd 4070 	ldmia.w	sp!, {r4, r5, r6, lr}
	  	switch (c) {
		case '\r' : // por causa da tecla enter do prompt no PROTEUS que envia \r
    	case '\n' : // estamos usando o finalizar de comandos "\n" ou "\r\n", logo  vamos podemos ignorar o "\r" e usar "\n"
    		lprintf(CMD_TERMINATOR);
    		initGet = 1;
    		return strlen ((char *) buffer);
    33a8:	f7fd bd5c 	b.w	e64 <strlen>

    	case '\b' :
    		if (p > buffer) {
    33ac:	4a1e      	ldr	r2, [pc, #120]	; (3428 <cli_GetLine+0xdc>)
    33ae:	6813      	ldr	r3, [r2, #0]
    33b0:	42a3      	cmp	r3, r4
    33b2:	f04f 0400 	mov.w	r4, #0
    33b6:	d931      	bls.n	341c <cli_GetLine+0xd0>
    			*--p = '\0';
    33b8:	1e59      	subs	r1, r3, #1
    33ba:	6011      	str	r1, [r2, #0]
    33bc:	f803 4c01 	strb.w	r4, [r3, #-1]
        		lprintf("\b \b");
    33c0:	491c      	ldr	r1, [pc, #112]	; (3434 <cli_GetLine+0xe8>)
    33c2:	f7ff fc7d 	bl	2cc0 <rprintf>
    33c6:	e029      	b.n	341c <cli_GetLine+0xd0>
        	break;
        	break;

	    case 0x15 : // CTRL-U
    		while (p != buffer) {
    			lprintf("\b \b");
    33c8:	2001      	movs	r0, #1
    33ca:	491a      	ldr	r1, [pc, #104]	; (3434 <cli_GetLine+0xe8>)
    33cc:	f7ff fc78 	bl	2cc0 <rprintf>
            	--p;
    33d0:	682b      	ldr	r3, [r5, #0]
    33d2:	3b01      	subs	r3, #1
    33d4:	602b      	str	r3, [r5, #0]
    33d6:	e000      	b.n	33da <cli_GetLine+0x8e>
        	}
        	break;
        	break;

	    case 0x15 : // CTRL-U
    		while (p != buffer) {
    33d8:	4d13      	ldr	r5, [pc, #76]	; (3428 <cli_GetLine+0xdc>)
    33da:	682b      	ldr	r3, [r5, #0]
    33dc:	42a3      	cmp	r3, r4
    33de:	d1f3      	bne.n	33c8 <cli_GetLine+0x7c>
    			lprintf("\b \b");
            	--p;
	        }
      		*p = '\0';
    33e0:	2000      	movs	r0, #0
    33e2:	7020      	strb	r0, [r4, #0]
      		break;
    33e4:	bd70      	pop	{r4, r5, r6, pc}

	    case 0xfe :
    	case 0xff :
        	*buffer++ = c;
    33e6:	7023      	strb	r3, [r4, #0]
        	*buffer = '\0';
    33e8:	2300      	movs	r3, #0
    33ea:	7063      	strb	r3, [r4, #1]
        	return 1;
    33ec:	bd70      	pop	{r4, r5, r6, pc}
	        		
	    default :
	    	if (p < buffer + bufferLength - 1 && c >= ' ' && c < 0x7f) {
    33ee:	480e      	ldr	r0, [pc, #56]	; (3428 <cli_GetLine+0xdc>)
    33f0:	3e01      	subs	r6, #1
    33f2:	6802      	ldr	r2, [r0, #0]
    33f4:	19a4      	adds	r4, r4, r6
    33f6:	42a2      	cmp	r2, r4
    33f8:	d210      	bcs.n	341c <cli_GetLine+0xd0>
    33fa:	2b1f      	cmp	r3, #31
    33fc:	d90e      	bls.n	341c <cli_GetLine+0xd0>
    33fe:	2b7e      	cmp	r3, #126	; 0x7e
    3400:	f04f 0400 	mov.w	r4, #0
    3404:	d80a      	bhi.n	341c <cli_GetLine+0xd0>
        		*p++ = c;
    3406:	4611      	mov	r1, r2
    3408:	f801 3b01 	strb.w	r3, [r1], #1
            	*p = '\0';
            	lprintf("%c", c);
    340c:	4b07      	ldr	r3, [pc, #28]	; (342c <cli_GetLine+0xe0>)
        	*buffer = '\0';
        	return 1;
	        		
	    default :
	    	if (p < buffer + bufferLength - 1 && c >= ' ' && c < 0x7f) {
        		*p++ = c;
    340e:	6001      	str	r1, [r0, #0]
            	*p = '\0';
    3410:	7054      	strb	r4, [r2, #1]
            	lprintf("%c", c);
    3412:	2001      	movs	r0, #1
    3414:	4908      	ldr	r1, [pc, #32]	; (3438 <cli_GetLine+0xec>)
    3416:	781a      	ldrb	r2, [r3, #0]
    3418:	f7ff fc52 	bl	2cc0 <rprintf>
	    	break;
      	}
    }
  	//}

  	return 0;
    341c:	2000      	movs	r0, #0
    341e:	bd70      	pop	{r4, r5, r6, pc}
    3420:	1000000c 	.word	0x1000000c
    3424:	00003d3c 	.word	0x00003d3c
    3428:	10000cbc 	.word	0x10000cbc
    342c:	10000cc0 	.word	0x10000cc0
    3430:	00003dd1 	.word	0x00003dd1
    3434:	00003d3f 	.word	0x00003d3f
    3438:	00003d43 	.word	0x00003d43

Disassembly of section .text.cli_Help:

0000343c <cli_Help>:
// -----------------------------------------------------------------------------------------------------------------
// Descrio:	Exibe a lista de comandos de help dos comandos
// Parametros:
// Retorna:
// -----------------------------------------------------------------------------------------------------------------
int cli_Help (int argc __attribute__ ((unused)), portCHAR **argv __attribute__ ((unused))) {
    343c:	e92d 41f0 	stmdb	sp!, {r4, r5, r6, r7, r8, lr}
  	unsigned int i;
  	int t;
  	int longestCmd;
  	portCHAR spaces [32];

  	memset (spaces, ' ', sizeof (spaces));
    3440:	2120      	movs	r1, #32
// -----------------------------------------------------------------------------------------------------------------
// Descrio:	Exibe a lista de comandos de help dos comandos
// Parametros:
// Retorna:
// -----------------------------------------------------------------------------------------------------------------
int cli_Help (int argc __attribute__ ((unused)), portCHAR **argv __attribute__ ((unused))) {
    3442:	b08a      	sub	sp, #40	; 0x28
  	unsigned int i;
  	int t;
  	int longestCmd;
  	portCHAR spaces [32];

  	memset (spaces, ' ', sizeof (spaces));
    3444:	a802      	add	r0, sp, #8
    3446:	460a      	mov	r2, r1
    3448:	f7fd fbd2 	bl	bf0 <memset>

  	for (longestCmd = 0, i = 0; cmd_list_active[i].command; i++)
    344c:	4b1f      	ldr	r3, [pc, #124]	; (34cc <cli_Help+0x90>)
    344e:	2400      	movs	r4, #0
    3450:	681e      	ldr	r6, [r3, #0]
    3452:	4625      	mov	r5, r4
    3454:	e004      	b.n	3460 <cli_Help+0x24>
    	if ((t = strlen (cmd_list_active[i].command)) > longestCmd)
    3456:	f7fd fd05 	bl	e64 <strlen>
    345a:	4285      	cmp	r5, r0
    345c:	bfb8      	it	lt
    345e:	4605      	movlt	r5, r0
    3460:	3414      	adds	r4, #20
// -----------------------------------------------------------------------------------------------------------------
// Descrio:	Exibe a lista de comandos de help dos comandos
// Parametros:
// Retorna:
// -----------------------------------------------------------------------------------------------------------------
int cli_Help (int argc __attribute__ ((unused)), portCHAR **argv __attribute__ ((unused))) {
    3462:	1933      	adds	r3, r6, r4
  	int longestCmd;
  	portCHAR spaces [32];

  	memset (spaces, ' ', sizeof (spaces));

  	for (longestCmd = 0, i = 0; cmd_list_active[i].command; i++)
    3464:	f853 0c14 	ldr.w	r0, [r3, #-20]
    3468:	2800      	cmp	r0, #0
    346a:	d1f4      	bne.n	3456 <cli_Help+0x1a>
    	if ((t = strlen (cmd_list_active[i].command)) > longestCmd)
      		longestCmd = t;

  	spaces [longestCmd] = '\0';
    346c:	aa0a      	add	r2, sp, #40	; 0x28
    346e:	1955      	adds	r5, r2, r5
    3470:	f805 0c20 	strb.w	r0, [r5, #-32]

  	for (i = 0; cmd_list_active[i].command; i++) {
    3474:	f8df 8054 	ldr.w	r8, [pc, #84]	; 34cc <cli_Help+0x90>
    3478:	4605      	mov	r5, r0
    347a:	e018      	b.n	34ae <cli_Help+0x72>
    	const tCLI *cl = &cmd_list_active[i];

    	if (cl->cmd_type == CMD_TYPE_FUNCTION)
    347c:	79b7      	ldrb	r7, [r6, #6]
    		lprintf("%s%s -- %s"CMD_TERMINATOR, cl->command, &spaces [strlen (cl->command)], cl->description);
    347e:	4620      	mov	r0, r4
  	spaces [longestCmd] = '\0';

  	for (i = 0; cmd_list_active[i].command; i++) {
    	const tCLI *cl = &cmd_list_active[i];

    	if (cl->cmd_type == CMD_TYPE_FUNCTION)
    3480:	2f01      	cmp	r7, #1
    3482:	d108      	bne.n	3496 <cli_Help+0x5a>
    		lprintf("%s%s -- %s"CMD_TERMINATOR, cl->command, &spaces [strlen (cl->command)], cl->description);
    3484:	f7fd fcee 	bl	e64 <strlen>
    3488:	aa02      	add	r2, sp, #8
    348a:	1813      	adds	r3, r2, r0
    348c:	68f2      	ldr	r2, [r6, #12]
    348e:	4638      	mov	r0, r7
    3490:	9200      	str	r2, [sp, #0]
    3492:	490f      	ldr	r1, [pc, #60]	; (34d0 <cli_Help+0x94>)
    3494:	e007      	b.n	34a6 <cli_Help+0x6a>
    	else
    		lprintf("%s%s -- " CLI_MSG_SUB_LIST " - %s"CMD_TERMINATOR, cl->command, &spaces [strlen (cl->command)], cl->description);
    3496:	f7fd fce5 	bl	e64 <strlen>
    349a:	aa02      	add	r2, sp, #8
    349c:	1813      	adds	r3, r2, r0
    349e:	68f2      	ldr	r2, [r6, #12]
    34a0:	490c      	ldr	r1, [pc, #48]	; (34d4 <cli_Help+0x98>)
    34a2:	9200      	str	r2, [sp, #0]
    34a4:	2001      	movs	r0, #1
    34a6:	4622      	mov	r2, r4
    34a8:	f7ff fc0a 	bl	2cc0 <rprintf>
    34ac:	3514      	adds	r5, #20
    	if ((t = strlen (cmd_list_active[i].command)) > longestCmd)
      		longestCmd = t;

  	spaces [longestCmd] = '\0';

  	for (i = 0; cmd_list_active[i].command; i++) {
    34ae:	f8d8 3000 	ldr.w	r3, [r8]
    34b2:	595c      	ldr	r4, [r3, r5]
    34b4:	195e      	adds	r6, r3, r5
    34b6:	2c00      	cmp	r4, #0
    34b8:	d1e0      	bne.n	347c <cli_Help+0x40>
    		lprintf("%s%s -- %s"CMD_TERMINATOR, cl->command, &spaces [strlen (cl->command)], cl->description);
    	else
    		lprintf("%s%s -- " CLI_MSG_SUB_LIST " - %s"CMD_TERMINATOR, cl->command, &spaces [strlen (cl->command)], cl->description);
  	}

  	lprintf(CLI_MSG_HELP);
    34ba:	2001      	movs	r0, #1
    34bc:	4906      	ldr	r1, [pc, #24]	; (34d8 <cli_Help+0x9c>)
    34be:	f7ff fbff 	bl	2cc0 <rprintf>

  	return pdPASS;
}
    34c2:	2001      	movs	r0, #1
    34c4:	b00a      	add	sp, #40	; 0x28
    34c6:	e8bd 81f0 	ldmia.w	sp!, {r4, r5, r6, r7, r8, pc}
    34ca:	bf00      	nop
    34cc:	10000cb8 	.word	0x10000cb8
    34d0:	00003d46 	.word	0x00003d46
    34d4:	00003d52 	.word	0x00003d52
    34d8:	00003d68 	.word	0x00003d68

Disassembly of section .text.cli_ArgsParse:

000034dc <cli_ArgsParse>:
  	P_GET_INIT_ARGS,
  	P_SET_END_ARGS,
  	P_SET_END_QUOTE
} p_state_t;

int cli_ArgsParse (char *cmd, char **argv, int sizeofArgv, int *argc) {
    34dc:	e92d 43f8 	stmdb	sp!, {r3, r4, r5, r6, r7, r8, r9, lr}
    34e0:	4605      	mov	r5, r0
    34e2:	460e      	mov	r6, r1
  	int max_args = (sizeofArgv / sizeof (argv [0])) - 1;	// Determina a quantidade mximo de argumetos que podem ser gravados no argv
    34e4:	ea4f 0892 	mov.w	r8, r2, lsr #2
  	P_GET_INIT_ARGS,
  	P_SET_END_ARGS,
  	P_SET_END_QUOTE
} p_state_t;

int cli_ArgsParse (char *cmd, char **argv, int sizeofArgv, int *argc) {
    34e8:	4691      	mov	r9, r2
    34ea:	461f      	mov	r7, r3
//				Ou seja, retira os espaos em branco do lado dirieto e esquerdo da string
// Parametros: ponteiro da string
// Retorna:		Ponteiro da strinf na posio onde comea o comando
// -----------------------------------------------------------------------------------------------------------------
static char *strtrim (char *s) {
  	char *t = s + strlen (s) - 1; 			// Aponta o endereo para o ltimo caractere da string
    34ec:	f7fd fcba 	bl	e64 <strlen>
    34f0:	3801      	subs	r0, #1
    34f2:	182c      	adds	r4, r5, r0
  	P_SET_END_ARGS,
  	P_SET_END_QUOTE
} p_state_t;

int cli_ArgsParse (char *cmd, char **argv, int sizeofArgv, int *argc) {
  	int max_args = (sizeofArgv / sizeof (argv [0])) - 1;	// Determina a quantidade mximo de argumetos que podem ser gravados no argv
    34f4:	f108 38ff 	add.w	r8, r8, #4294967295
// -----------------------------------------------------------------------------------------------------------------
static char *strtrim (char *s) {
  	char *t = s + strlen (s) - 1; 			// Aponta o endereo para o ltimo caractere da string

  	// COLOCO O FINALIZAR LOGO APS O COMANDO. OU SEJA, RETIRA OS ESPAOS EM BRANCO DO LADO DIREITO DA STRING
  	while (t >= s && *t && isspace ((int)*t)) 	// Faa enquanto o endereo t seja maior ou igual ao endereo da string e se o caractere for um whitespace
    34f8:	4932      	ldr	r1, [pc, #200]	; (35c4 <cli_ArgsParse+0xe8>)
  		*t-- = '\0'; 						// Posio atual da string recebe nulo e aponto para o endereo anterior na string
    34fa:	2000      	movs	r0, #0
    34fc:	e000      	b.n	3500 <cli_ArgsParse+0x24>
    34fe:	7060      	strb	r0, [r4, #1]
// -----------------------------------------------------------------------------------------------------------------
static char *strtrim (char *s) {
  	char *t = s + strlen (s) - 1; 			// Aponta o endereo para o ltimo caractere da string

  	// COLOCO O FINALIZAR LOGO APS O COMANDO. OU SEJA, RETIRA OS ESPAOS EM BRANCO DO LADO DIREITO DA STRING
  	while (t >= s && *t && isspace ((int)*t)) 	// Faa enquanto o endereo t seja maior ou igual ao endereo da string e se o caractere for um whitespace
    3500:	42ac      	cmp	r4, r5
    3502:	d202      	bcs.n	350a <cli_ArgsParse+0x2e>
  		*t-- = '\0'; 						// Posio atual da string recebe nulo e aponto para o endereo anterior na string

  	// ENCONTRA O INICIO DO COMANDO. OU SEJA, RETIRA OS ESPAOS EM BRANCO DO LADO ESQUERDO DA STRING
  	while (*s && isspace ((int)*s)) 		// Faa enquanto o endereo s seja menor que o endereo final da string e se o caractere for um whitespace
    3504:	4b2f      	ldr	r3, [pc, #188]	; (35c4 <cli_ArgsParse+0xe8>)
    3506:	681a      	ldr	r2, [r3, #0]
    3508:	e00c      	b.n	3524 <cli_ArgsParse+0x48>
// -----------------------------------------------------------------------------------------------------------------
static char *strtrim (char *s) {
  	char *t = s + strlen (s) - 1; 			// Aponta o endereo para o ltimo caractere da string

  	// COLOCO O FINALIZAR LOGO APS O COMANDO. OU SEJA, RETIRA OS ESPAOS EM BRANCO DO LADO DIREITO DA STRING
  	while (t >= s && *t && isspace ((int)*t)) 	// Faa enquanto o endereo t seja maior ou igual ao endereo da string e se o caractere for um whitespace
    350a:	f814 3901 	ldrb.w	r3, [r4], #-1
    350e:	2b00      	cmp	r3, #0
    3510:	d0f8      	beq.n	3504 <cli_ArgsParse+0x28>
    3512:	680a      	ldr	r2, [r1, #0]
    3514:	18d3      	adds	r3, r2, r3
    3516:	785b      	ldrb	r3, [r3, #1]
    3518:	f003 0308 	and.w	r3, r3, #8
    351c:	b2db      	uxtb	r3, r3
    351e:	2b00      	cmp	r3, #0
    3520:	d1ed      	bne.n	34fe <cli_ArgsParse+0x22>
    3522:	e7ef      	b.n	3504 <cli_ArgsParse+0x28>
    3524:	462c      	mov	r4, r5
  		*t-- = '\0'; 						// Posio atual da string recebe nulo e aponto para o endereo anterior na string

  	// ENCONTRA O INICIO DO COMANDO. OU SEJA, RETIRA OS ESPAOS EM BRANCO DO LADO ESQUERDO DA STRING
  	while (*s && isspace ((int)*s)) 		// Faa enquanto o endereo s seja menor que o endereo final da string e se o caractere for um whitespace
    3526:	f815 3b01 	ldrb.w	r3, [r5], #1
    352a:	b133      	cbz	r3, 353a <cli_ArgsParse+0x5e>
    352c:	18d3      	adds	r3, r2, r3
    352e:	785b      	ldrb	r3, [r3, #1]
    3530:	f003 0308 	and.w	r3, r3, #8
    3534:	b2db      	uxtb	r3, r3
    3536:	2b00      	cmp	r3, #0
    3538:	d1f4      	bne.n	3524 <cli_ArgsParse+0x48>
  	int max_args = (sizeofArgv / sizeof (argv [0])) - 1;	// Determina a quantidade mximo de argumetos que podem ser gravados no argv
  	char *s = strtrim (cmd); 								// Retira espaos em branco ou caracteres de controle do lado direto ou esquerdo da string e captura o endereo do comando
  	
  	p_state_t pstate = P_WAIT_INIT_ARGS;					// Sinalizo para esperar pelo separado de argumentos que  o espao em branco

  	*argc = 0;												// Sinaliza que ainda no capturou nenhum argumento
    353a:	2500      	movs	r5, #0
  	memset (argv, 0, sizeofArgv); 							// Preenche os endereos do argv com valores 0, ou seja, limpa todos os endereos
    353c:	464a      	mov	r2, r9
  	int max_args = (sizeofArgv / sizeof (argv [0])) - 1;	// Determina a quantidade mximo de argumetos que podem ser gravados no argv
  	char *s = strtrim (cmd); 								// Retira espaos em branco ou caracteres de controle do lado direto ou esquerdo da string e captura o endereo do comando
  	
  	p_state_t pstate = P_WAIT_INIT_ARGS;					// Sinalizo para esperar pelo separado de argumentos que  o espao em branco

  	*argc = 0;												// Sinaliza que ainda no capturou nenhum argumento
    353e:	603d      	str	r5, [r7, #0]
  	memset (argv, 0, sizeofArgv); 							// Preenche os endereos do argv com valores 0, ou seja, limpa todos os endereos
    3540:	4630      	mov	r0, r6
    3542:	4629      	mov	r1, r5
    3544:	f7fd fb54 	bl	bf0 <memset>

int cli_ArgsParse (char *cmd, char **argv, int sizeofArgv, int *argc) {
  	int max_args = (sizeofArgv / sizeof (argv [0])) - 1;	// Determina a quantidade mximo de argumetos que podem ser gravados no argv
  	char *s = strtrim (cmd); 								// Retira espaos em branco ou caracteres de controle do lado direto ou esquerdo da string e captura o endereo do comando
  	
  	p_state_t pstate = P_WAIT_INIT_ARGS;					// Sinalizo para esperar pelo separado de argumentos que  o espao em branco
    3548:	462a      	mov	r2, r5
  	
  	while (*s) {											// Fazer para toda os caracteres do comando
    	switch (pstate) {
      		// PROCURA O INICIO DO ARGUMENTO
      		case P_WAIT_INIT_ARGS :  {						// Checa se estamos esperando pelo separador de argumentos, que  o espao em branco
          		if (!isspace ((int)*s))  						// Checa se a posio atual no  um white-space, sinalizador de inicio de arqumento
    354a:	4b1e      	ldr	r3, [pc, #120]	; (35c4 <cli_ArgsParse+0xe8>)

      		// ENCONTRA FIM DO ARGUMENTO E SINALIZA NA POSIO, ENDEREO, DO COMANDO COM O CARACTERE NULO
      		case P_SET_END_ARGS : {
          		if (isspace ((int)*s)) {							// Checa se o caractere atual  um whitespace
            		pstate = P_WAIT_INIT_ARGS;				// Sinaliza para ir a estado para captura do prrximo argumento
            		*s = '\0';								// Sinaliza na posio atual que  o fim do argumento atual
    354c:	4628      	mov	r0, r5
  	p_state_t pstate = P_WAIT_INIT_ARGS;					// Sinalizo para esperar pelo separado de argumentos que  o espao em branco

  	*argc = 0;												// Sinaliza que ainda no capturou nenhum argumento
  	memset (argv, 0, sizeofArgv); 							// Preenche os endereos do argv com valores 0, ou seja, limpa todos os endereos
  	
  	while (*s) {											// Fazer para toda os caracteres do comando
    354e:	e02f      	b.n	35b0 <cli_ArgsParse+0xd4>
    	switch (pstate) {
    3550:	2a03      	cmp	r2, #3
    3552:	d8fd      	bhi.n	3550 <cli_ArgsParse+0x74>
    3554:	e8df f002 	tbb	[pc, r2]
    3558:	26180a02 	.word	0x26180a02
      		// PROCURA O INICIO DO ARGUMENTO
      		case P_WAIT_INIT_ARGS :  {						// Checa se estamos esperando pelo separador de argumentos, que  o espao em branco
          		if (!isspace ((int)*s))  						// Checa se a posio atual no  um white-space, sinalizador de inicio de arqumento
    355c:	6819      	ldr	r1, [r3, #0]
    355e:	194d      	adds	r5, r1, r5
    3560:	7869      	ldrb	r1, [r5, #1]
    3562:	f001 0108 	and.w	r1, r1, #8
    3566:	b2c9      	uxtb	r1, r1
    3568:	b309      	cbz	r1, 35ae <cli_ArgsParse+0xd2>
    356a:	e01e      	b.n	35aa <cli_ArgsParse+0xce>

      		// CAPTURO A POSIO, ENDEREO, INICIAL DO ARGUMENTO NO VETOR DE COMANDOS
      		case P_GET_INIT_ARGS : {
          		*argv++ = s; 								// Captura o endereo S, posio X do buffer, e aponta para o prxima posio do ponteiro de argumentos

          		if (++*argc == max_args)					// Incremento a quantidade de argumetos encontrado e checa se est no limite mximo de argumentos
    356c:	683a      	ldr	r2, [r7, #0]
        	}
        	break;

      		// CAPTURO A POSIO, ENDEREO, INICIAL DO ARGUMENTO NO VETOR DE COMANDOS
      		case P_GET_INIT_ARGS : {
          		*argv++ = s; 								// Captura o endereo S, posio X do buffer, e aponta para o prxima posio do ponteiro de argumentos
    356e:	f846 4b04 	str.w	r4, [r6], #4

          		if (++*argc == max_args)					// Incremento a quantidade de argumetos encontrado e checa se est no limite mximo de argumentos
    3572:	3201      	adds	r2, #1
    3574:	4542      	cmp	r2, r8
    3576:	603a      	str	r2, [r7, #0]
    3578:	d020      	beq.n	35bc <cli_ArgsParse+0xe0>
        	    	return errCLI_EXED_ARGS;					// Retorna erro
	          	if (*s == '"')								// Checa se encontramos o caractere aspa. Sinaliza inicio do parametro de string contend espaos em branco internos
    357a:	f814 2b01 	ldrb.w	r2, [r4], #1
    	        	pstate = P_SET_END_QUOTE;				// Vai ao estado de encontrar fim das aspas, isto porque nesta condio consideramos o espao em branco como contedo do parametro 
    357e:	2a22      	cmp	r2, #34	; 0x22
    3580:	bf14      	ite	ne
    3582:	2202      	movne	r2, #2
    3584:	2203      	moveq	r2, #3
        	  	else
            		pstate = P_SET_END_ARGS;				// Vai ao estado de de encontrar fim do argumento

	          	s++;										// Aponto para o prximo endereo do caractere do comando
    	    }
        	break;
    3586:	e013      	b.n	35b0 <cli_ArgsParse+0xd4>

      		// ENCONTRA FIM DO ARGUMENTO E SINALIZA NA POSIO, ENDEREO, DO COMANDO COM O CARACTERE NULO
      		case P_SET_END_ARGS : {
          		if (isspace ((int)*s)) {							// Checa se o caractere atual  um whitespace
    3588:	6819      	ldr	r1, [r3, #0]
    358a:	1949      	adds	r1, r1, r5
    358c:	7849      	ldrb	r1, [r1, #1]
    358e:	f001 0108 	and.w	r1, r1, #8
    3592:	b2c9      	uxtb	r1, r1
    3594:	b111      	cbz	r1, 359c <cli_ArgsParse+0xc0>
            		pstate = P_WAIT_INIT_ARGS;				// Sinaliza para ir a estado para captura do prrximo argumento
            		*s = '\0';								// Sinaliza na posio atual que  o fim do argumento atual
    3596:	7020      	strb	r0, [r4, #0]
        	break;

      		// ENCONTRA FIM DO ARGUMENTO E SINALIZA NA POSIO, ENDEREO, DO COMANDO COM O CARACTERE NULO
      		case P_SET_END_ARGS : {
          		if (isspace ((int)*s)) {							// Checa se o caractere atual  um whitespace
            		pstate = P_WAIT_INIT_ARGS;				// Sinaliza para ir a estado para captura do prrximo argumento
    3598:	2200      	movs	r2, #0
    359a:	e006      	b.n	35aa <cli_ArgsParse+0xce>
            		*s = '\0';								// Sinaliza na posio atual que  o fim do argumento atual
          		}  else if (*s == '"')						// Checa se encontramos o caractere aspa. Sinaliza inicio do parametro de string contend espaos em branco internos
            		pstate = P_SET_END_QUOTE;				// Vai ao estado de encontrar fim do argumentos dentro das aspas, isto porque nesta condio consideramos o espao em branco como contedo do parametor 
    359c:	2d22      	cmp	r5, #34	; 0x22
    359e:	bf08      	it	eq
    35a0:	2203      	moveq	r2, #3
    35a2:	e002      	b.n	35aa <cli_ArgsParse+0xce>
       		}
        		break;

      		// ECONTRA O FIM DAS ASPAS PARA SINALIZAR FIM DE ARGUMENTO
      		case P_SET_END_QUOTE : {
          		if (*s == '"')	pstate = P_SET_END_ARGS;	// Checa se encontramos o caractere aspa. Sinaliza final do parametro e v ao estado para procura do fim de argumento
    35a4:	2d22      	cmp	r5, #34	; 0x22
    35a6:	bf08      	it	eq
    35a8:	2202      	moveq	r2, #2
          		
          		s++;										// Aponto para o prximo endereo do caractere do comando
    35aa:	3401      	adds	r4, #1
        	}
        		break;
    35ac:	e000      	b.n	35b0 <cli_ArgsParse+0xd4>
  	while (*s) {											// Fazer para toda os caracteres do comando
    	switch (pstate) {
      		// PROCURA O INICIO DO ARGUMENTO
      		case P_WAIT_INIT_ARGS :  {						// Checa se estamos esperando pelo separador de argumentos, que  o espao em branco
          		if (!isspace ((int)*s))  						// Checa se a posio atual no  um white-space, sinalizador de inicio de arqumento
            		pstate = P_GET_INIT_ARGS;				// Sinalizo para ir para o estado de captura do argumento atual
    35ae:	2201      	movs	r2, #1
  	p_state_t pstate = P_WAIT_INIT_ARGS;					// Sinalizo para esperar pelo separado de argumentos que  o espao em branco

  	*argc = 0;												// Sinaliza que ainda no capturou nenhum argumento
  	memset (argv, 0, sizeofArgv); 							// Preenche os endereos do argv com valores 0, ou seja, limpa todos os endereos
  	
  	while (*s) {											// Fazer para toda os caracteres do comando
    35b0:	7825      	ldrb	r5, [r4, #0]
    35b2:	2d00      	cmp	r5, #0
    35b4:	d1cc      	bne.n	3550 <cli_ArgsParse+0x74>
        	}
        		break;
    	}
  	}

  	return pdPASS;												// Retorna que OK
    35b6:	2001      	movs	r0, #1
    35b8:	e8bd 83f8 	ldmia.w	sp!, {r3, r4, r5, r6, r7, r8, r9, pc}
      		// CAPTURO A POSIO, ENDEREO, INICIAL DO ARGUMENTO NO VETOR DE COMANDOS
      		case P_GET_INIT_ARGS : {
          		*argv++ = s; 								// Captura o endereo S, posio X do buffer, e aponta para o prxima posio do ponteiro de argumentos

          		if (++*argc == max_args)					// Incremento a quantidade de argumetos encontrado e checa se est no limite mximo de argumentos
        	    	return errCLI_EXED_ARGS;					// Retorna erro
    35bc:	f06f 003b 	mvn.w	r0, #59	; 0x3b
        		break;
    	}
  	}

  	return pdPASS;												// Retorna que OK
}
    35c0:	e8bd 83f8 	ldmia.w	sp!, {r3, r4, r5, r6, r7, r8, r9, pc}
    35c4:	10000000 	.word	0x10000000

Disassembly of section .text.cli_ArgsDispatch:

000035c8 <cli_ArgsDispatch>:
//              Valor do retorno da funo chamada
//              errCLI_CMD_NOT_FOUND: Se no encontrou o comando digitado na lista de comandos
//              errCLI_MANY_ARGS: Caso tenha muitos argumentos para o comando atual
//              errCLI_FEW_ARGS: Caso tenha pouco argumentos para o comando atual
// -----------------------------------------------------------------------------------------------------------------
int cli_ArgsDispatch (const tCLI *cl, int argc, char **argv) {
    35c8:	b5f8      	push	{r3, r4, r5, r6, r7, lr}
  	cmd_list_active = cl;
    35ca:	4f1f      	ldr	r7, [pc, #124]	; (3648 <cli_ArgsDispatch+0x80>)
//              Valor do retorno da funo chamada
//              errCLI_CMD_NOT_FOUND: Se no encontrou o comando digitado na lista de comandos
//              errCLI_MANY_ARGS: Caso tenha muitos argumentos para o comando atual
//              errCLI_FEW_ARGS: Caso tenha pouco argumentos para o comando atual
// -----------------------------------------------------------------------------------------------------------------
int cli_ArgsDispatch (const tCLI *cl, int argc, char **argv) {
    35cc:	4604      	mov	r4, r0
    35ce:	460e      	mov	r6, r1
    35d0:	4615      	mov	r5, r2
  	cmd_list_active = cl;
    35d2:	603c      	str	r4, [r7, #0]

  	while (cl->command) { 								// Percorre toda lista de comandos
    35d4:	e032      	b.n	363c <cli_ArgsDispatch+0x74>
    	if (!strcmp (cl->command, argv [0])) {			// Checa se o comando atual  o mesmo digitado
    35d6:	6829      	ldr	r1, [r5, #0]
    35d8:	f7fd fb56 	bl	c88 <strcmp>
    35dc:	2800      	cmp	r0, #0
    35de:	d12c      	bne.n	363a <cli_ArgsDispatch+0x72>
      		int ret = 0;

      		if ((argc == 2) && !strcmp (argv [1], "?")) { // Checa se foi digitaldo ? para o comando 
    35e0:	2e02      	cmp	r6, #2
    35e2:	d10b      	bne.n	35fc <cli_ArgsDispatch+0x34>
    35e4:	6868      	ldr	r0, [r5, #4]
    35e6:	4919      	ldr	r1, [pc, #100]	; (364c <cli_ArgsDispatch+0x84>)
    35e8:	f7fd fb4e 	bl	c88 <strcmp>
    35ec:	b930      	cbnz	r0, 35fc <cli_ArgsDispatch+0x34>
        		lprintf("%s"CMD_TERMINATOR, cl->parameters);		// Exibe ajuda para os parametros
    35ee:	2001      	movs	r0, #1
    35f0:	4917      	ldr	r1, [pc, #92]	; (3650 <cli_ArgsDispatch+0x88>)
    35f2:	6922      	ldr	r2, [r4, #16]
    35f4:	f7ff fb64 	bl	2cc0 <rprintf>
        		ret = pdPASS;
    35f8:	2001      	movs	r0, #1
    35fa:	bdf8      	pop	{r3, r4, r5, r6, r7, pc}
      		} else if ((argc - 1) < cl->min_args) {			// Checa se a quantidade de argumentos digitados  menor que o mnimo permitido
    35fc:	7922      	ldrb	r2, [r4, #4]
    35fe:	4296      	cmp	r6, r2
    3600:	dc06      	bgt.n	3610 <cli_ArgsDispatch+0x48>
        		lprintf(CLI_MSG_FEW_ARGS, cl->min_args);
    3602:	2001      	movs	r0, #1
    3604:	4913      	ldr	r1, [pc, #76]	; (3654 <cli_ArgsDispatch+0x8c>)
    3606:	f7ff fb5b 	bl	2cc0 <rprintf>
        		ret = errCLI_FEW_ARGS;
    360a:	f06f 003d 	mvn.w	r0, #61	; 0x3d
    360e:	bdf8      	pop	{r3, r4, r5, r6, r7, pc}
      		} else if (cl->cmd_type == CMD_TYPE_LIST) {		// Checa se  um comando ou uma nome de outra lista
    3610:	79a3      	ldrb	r3, [r4, #6]
    3612:	1e70      	subs	r0, r6, #1
    3614:	b91b      	cbnz	r3, 361e <cli_ArgsDispatch+0x56>
        		ret = cli_ArgsDispatch (cl->cmd_list, argc - 1, &argv [1]); // Chama essa a sub lista
    3616:	68a4      	ldr	r4, [r4, #8]
    3618:	4606      	mov	r6, r0
    361a:	3504      	adds	r5, #4
    361c:	e7d9      	b.n	35d2 <cli_ArgsDispatch+0xa>
      		} else if ((argc - 1) > cl->max_args) {			// Checa se a quantidade de argumentos digitados  maior que o mximo permitido
    361e:	7962      	ldrb	r2, [r4, #5]
    3620:	4290      	cmp	r0, r2
    3622:	dd06      	ble.n	3632 <cli_ArgsDispatch+0x6a>
        		lprintf(CLI_MSG_MANY_ARGS, cl->max_args);
    3624:	2001      	movs	r0, #1
    3626:	490c      	ldr	r1, [pc, #48]	; (3658 <cli_ArgsDispatch+0x90>)
    3628:	f7ff fb4a 	bl	2cc0 <rprintf>
        		ret = errCLI_MANY_ARGS;
    362c:	f06f 003c 	mvn.w	r0, #60	; 0x3c
    3630:	bdf8      	pop	{r3, r4, r5, r6, r7, pc}
      		} else {
        		ret = (*cl->handler) (argc - 1, &argv [1]); // Chama a funo anexado a esse comando
    3632:	68a3      	ldr	r3, [r4, #8]
    3634:	1d29      	adds	r1, r5, #4
    3636:	4798      	blx	r3
    3638:	bdf8      	pop	{r3, r4, r5, r6, r7, pc}
        	}

      		return ret;										// Retorna o valor de retorno da funo ou 0 se no chamou funo alguma
    	}

    	cl++;											// aponta para o prximo comando na lista 
    363a:	3414      	adds	r4, #20
//              errCLI_FEW_ARGS: Caso tenha pouco argumentos para o comando atual
// -----------------------------------------------------------------------------------------------------------------
int cli_ArgsDispatch (const tCLI *cl, int argc, char **argv) {
  	cmd_list_active = cl;

  	while (cl->command) { 								// Percorre toda lista de comandos
    363c:	6820      	ldr	r0, [r4, #0]
    363e:	2800      	cmp	r0, #0
    3640:	d1c9      	bne.n	35d6 <cli_ArgsDispatch+0xe>
  	}

  	//if (!cl->command)
    	//lprintf(CLI_MSG_UNKNOWN_CMD " \"%sCMD_TERMINATOR, argv [0]);

  	return errCLI_CMD_NOT_FOUND;
    3642:	f06f 003e 	mvn.w	r0, #62	; 0x3e
}
    3646:	bdf8      	pop	{r3, r4, r5, r6, r7, pc}
    3648:	10000cb8 	.word	0x10000cb8
    364c:	00003d93 	.word	0x00003d93
    3650:	00003d64 	.word	0x00003d64
    3654:	00003d95 	.word	0x00003d95
    3658:	00003db6 	.word	0x00003db6
